
gzrom:     file format elf32-tradlittlemips
gzrom


Disassembly of section .text:

87900000 <_ftext>:
_ftext():
87900000:	40806000 	mtc0	zero,$12
87900004:	40806800 	mtc0	zero,$13
87900008:	3c080040 	lui	t0,0x40
8790000c:	40886000 	mtc0	t0,$12
87900010:	3c1d8790 	lui	sp,0x8790
87900014:	27bdc000 	addiu	sp,sp,-16384
87900018:	3c1c8796 	lui	gp,0x8796
8790001c:	279c4000 	addiu	gp,gp,16384
87900020:	00000000 	nop
87900024:	041101c4 	bal	87900738 <locate>
87900028:	00000000 	nop

8790002c <uncached>:
uncached():
8790002c:	3c01a000 	lui	at,0xa000
87900030:	03e1f825 	or	ra,ra,at
87900034:	03e00008 	jr	ra
87900038:	00000000 	nop
	...

87900200 <ext_map_and_reboot>:
ext_map_and_reboot():
87900200:	3c041000 	lui	a0,0x1000
87900204:	009f2024 	and	a0,a0,ra
87900208:	14800004 	bnez	a0,8790021c <ext_map_and_reboot+0x1c>
8790020c:	3c048790 	lui	a0,0x8790
87900210:	24840000 	addiu	a0,a0,0
87900214:	3c10bfc0 	lui	s0,0xbfc0
87900218:	02048023 	subu	s0,s0,a0
8790021c:	3c048790 	lui	a0,0x8790
87900220:	24846b6f 	addiu	a0,a0,27503
87900224:	04110e4a 	bal	87903b50 <stringserial>
87900228:	00000000 	nop
8790022c:	100000b4 	b	87900500 <exc_common>
87900230:	00000000 	nop
	...
87900280:	3c048790 	lui	a0,0x8790
87900284:	24846b9b 	addiu	a0,a0,27547
87900288:	04110e31 	bal	87903b50 <stringserial>
8790028c:	00000000 	nop
87900290:	1000009b 	b	87900500 <exc_common>
87900294:	00000000 	nop
	...
87900300:	3c048790 	lui	a0,0x8790
87900304:	248460a0 	addiu	a0,a0,24736
87900308:	04110e11 	bal	87903b50 <stringserial>
8790030c:	00000000 	nop
87900310:	4004d800 	mfc0	a0,$27
87900314:	04110e26 	bal	87903bb0 <hexserial>
87900318:	00000000 	nop
8790031c:	10000078 	b	87900500 <exc_common>
87900320:	00000000 	nop
	...
87900380:	3c041000 	lui	a0,0x1000
87900384:	009f2024 	and	a0,a0,ra
87900388:	14800004 	bnez	a0,8790039c <ext_map_and_reboot+0x19c>
8790038c:	3c048790 	lui	a0,0x8790
87900390:	24840000 	addiu	a0,a0,0
87900394:	3c10bfc0 	lui	s0,0xbfc0
87900398:	02048023 	subu	s0,s0,a0
8790039c:	3c048790 	lui	a0,0x8790
879003a0:	24846bc8 	addiu	a0,a0,27592
879003a4:	04110dea 	bal	87903b50 <stringserial>
879003a8:	00000000 	nop
879003ac:	10000054 	b	87900500 <exc_common>
879003b0:	00000000 	nop
	...
87900400:	3c048790 	lui	a0,0x8790
87900404:	24846bf1 	addiu	a0,a0,27633
87900408:	04110dd1 	bal	87903b50 <stringserial>
8790040c:	00000000 	nop
87900410:	1000003b 	b	87900500 <exc_common>
87900414:	00000000 	nop
	...
87900480:	3c08bfd0 	lui	t0,0xbfd0
87900484:	35080420 	ori	t0,t0,0x420
87900488:	8d090000 	lw	t1,0(t0)
8790048c:	240afffd 	li	t2,-3
87900490:	012a4824 	and	t1,t1,t2
87900494:	ad090000 	sw	t1,0(t0)
87900498:	3c08afff 	lui	t0,0xafff
8790049c:	3508fe30 	ori	t0,t0,0xfe30
879004a0:	8d090004 	lw	t1,4(t0)
879004a4:	240a0001 	li	t2,1
879004a8:	012a4825 	or	t1,t1,t2
879004ac:	ad090004 	sw	t1,4(t0)
879004b0:	3c08bfd0 	lui	t0,0xbfd0
879004b4:	35080420 	ori	t0,t0,0x420
879004b8:	8d090000 	lw	t1,0(t0)
879004bc:	240a0001 	li	t2,1
879004c0:	012a4825 	or	t1,t1,t2
879004c4:	ad090000 	sw	t1,0(t0)
879004c8:	3c08bfe7 	lui	t0,0xbfe7
879004cc:	3508c008 	ori	t0,t0,0xc008
879004d0:	8d090000 	lw	t1,0(t0)
879004d4:	35292000 	ori	t1,t1,0x2000
879004d8:	ad090000 	sw	t1,0(t0)
	...

87900500 <exc_common>:
exc_common():
87900500:	3c048790 	lui	a0,0x8790
87900504:	248460cc 	addiu	a0,a0,24780
87900508:	04110d91 	bal	87903b50 <stringserial>
8790050c:	00000000 	nop
87900510:	40046800 	mfc0	a0,$13
87900514:	04110da6 	bal	87903bb0 <hexserial>
87900518:	00000000 	nop
8790051c:	3c048790 	lui	a0,0x8790
87900520:	248460d5 	addiu	a0,a0,24789
87900524:	04110d8a 	bal	87903b50 <stringserial>
87900528:	00000000 	nop
8790052c:	40046000 	mfc0	a0,$12
87900530:	04110d9f 	bal	87903bb0 <hexserial>
87900534:	00000000 	nop
87900538:	3c048790 	lui	a0,0x8790
8790053c:	248460df 	addiu	a0,a0,24799
87900540:	04110d83 	bal	87903b50 <stringserial>
87900544:	00000000 	nop
87900548:	4004f000 	mfc0	a0,$30
8790054c:	04110d98 	bal	87903bb0 <hexserial>
87900550:	00000000 	nop
87900554:	3c048790 	lui	a0,0x8790
87900558:	248460ea 	addiu	a0,a0,24810
8790055c:	04110d7c 	bal	87903b50 <stringserial>
87900560:	00000000 	nop
87900564:	40047000 	mfc0	a0,$14
87900568:	04110d91 	bal	87903bb0 <hexserial>
8790056c:	00000000 	nop
87900570:	3c048790 	lui	a0,0x8790
87900574:	248460f1 	addiu	a0,a0,24817
87900578:	04110d75 	bal	87903b50 <stringserial>
8790057c:	00000000 	nop
87900580:	40044000 	mfc0	a0,$8
87900584:	04110d8a 	bal	87903bb0 <hexserial>
87900588:	00000000 	nop
8790058c:	04110ca4 	bal	87903820 <mydebug_main>
87900590:	00000000 	nop
87900594:	1000ffff 	b	87900594 <exc_common+0x94>
87900598:	00000000 	nop
	...
87900700:	8795d014 	lh	s5,-12268(gp)
87900704:	8795d010 	lh	s5,-12272(gp)
87900708:	8795d01c 	lh	s5,-12260(gp)
8790070c:	8795d024 	lh	s5,-12252(gp)
87900710:	87903cd8 	lh	s0,15576(gp)
87900714:	8795d000 	lh	s5,-12288(gp)
87900718:	8795d004 	lh	s5,-12284(gp)
8790071c:	87903cd8 	lh	s0,15576(gp)
87900720:	87903cd8 	lh	s0,15576(gp)
87900724:	8795d00c 	lh	s5,-12276(gp)
87900728:	87903cd8 	lh	s0,15576(gp)
8790072c:	87903cd8 	lh	s0,15576(gp)
87900730:	87903cd8 	lh	s0,15576(gp)
87900734:	87903cd8 	lh	s0,15576(gp)

87900738 <locate>:
locate():
87900738:	3c108790 	lui	s0,0x8790
8790073c:	2610002c 	addiu	s0,s0,44
87900740:	03f08023 	subu	s0,ra,s0
87900744:	3c080040 	lui	t0,0x40
87900748:	40886000 	mtc0	t0,$12
8790074c:	40806800 	mtc0	zero,$13
87900750:	3c08bfe8 	lui	t0,0xbfe8
87900754:	24090017 	li	t1,23
87900758:	a1090004 	sb	t1,4(t0)
8790075c:	3c02bfc7 	lui	v0,0xbfc7
87900760:	344201f0 	ori	v0,v0,0x1f0
87900764:	8c450000 	lw	a1,0(v0)
87900768:	3c02ffff 	lui	v0,0xffff
8790076c:	00451024 	and	v0,v0,a1
87900770:	3c031234 	lui	v1,0x1234
87900774:	14430006 	bne	v0,v1,87900790 <locate+0x58>
87900778:	00000000 	nop
8790077c:	30a5ffff 	andi	a1,a1,0xffff
87900780:	34028888 	li	v0,0x8888
87900784:	00a22825 	or	a1,a1,v0
87900788:	10000002 	b	87900794 <locate+0x5c>
8790078c:	00000000 	nop
87900790:	3405898d 	li	a1,0x898d
87900794:	3c04bfe7 	lui	a0,0xbfe7
87900798:	34848030 	ori	a0,a0,0x8030
8790079c:	ac850000 	sw	a1,0(a0)
879007a0:	ac850000 	sw	a1,0(a0)
879007a4:	ac850000 	sw	a1,0(a0)
879007a8:	00000000 	nop
879007ac:	24023000 	li	v0,12288
879007b0:	1440ffff 	bnez	v0,879007b0 <locate+0x78>
879007b4:	2442ffff 	addiu	v0,v0,-1
879007b8:	3c04bfd0 	lui	a0,0xbfd0
879007bc:	ac8010c0 	sw	zero,4288(a0)
879007c0:	ac8010c4 	sw	zero,4292(a0)
879007c4:	ac8010c8 	sw	zero,4296(a0)
879007c8:	ac800420 	sw	zero,1056(a0)
879007cc:	24040000 	li	a0,0
879007d0:	04110d27 	bal	87903c70 <initserial>
879007d4:	00000000 	nop
879007d8:	3c048790 	lui	a0,0x8790
879007dc:	248460fc 	addiu	a0,a0,24828
879007e0:	04110cdb 	bal	87903b50 <stringserial>
879007e4:	00000000 	nop
879007e8:	3c048790 	lui	a0,0x8790
879007ec:	24846127 	addiu	a0,a0,24871
879007f0:	04110cd7 	bal	87903b50 <stringserial>
879007f4:	00000000 	nop
879007f8:	4004f000 	mfc0	a0,$30
879007fc:	04110cec 	bal	87903bb0 <hexserial>
87900800:	00000000 	nop
87900804:	3c048790 	lui	a0,0x8790
87900808:	24846130 	addiu	a0,a0,24880
8790080c:	04110cd0 	bal	87903b50 <stringserial>
87900810:	00000000 	nop
87900814:	40048000 	mfc0	a0,$16
87900818:	04110ce5 	bal	87903bb0 <hexserial>
8790081c:	00000000 	nop
87900820:	3c048790 	lui	a0,0x8790
87900824:	24846139 	addiu	a0,a0,24889
87900828:	04110cc9 	bal	87903b50 <stringserial>
8790082c:	00000000 	nop
87900830:	3c048790 	lui	a0,0x8790
87900834:	2484613c 	addiu	a0,a0,24892
87900838:	04110cc5 	bal	87903b50 <stringserial>
8790083c:	00000000 	nop
87900840:	40047800 	mfc0	a0,$15
87900844:	04110cda 	bal	87903bb0 <hexserial>
87900848:	00000000 	nop
8790084c:	3c048790 	lui	a0,0x8790
87900850:	24846143 	addiu	a0,a0,24899
87900854:	04110cbe 	bal	87903b50 <stringserial>
87900858:	00000000 	nop
8790085c:	00000000 	nop
87900860:	16000004 	bnez	s0,87900874 <cpu_win_fixup>
87900864:	00000000 	nop
87900868:	24040080 	li	a0,128
8790086c:	0de415f7 	jal	879057dc <initmips>
87900870:	00000000 	nop

87900874 <cpu_win_fixup>:
cpu_win_fixup():
87900874:	3c08bfd0 	lui	t0,0xbfd0
87900878:	ad000080 	sw	zero,128(t0)
8790087c:	3c091fc0 	lui	t1,0x1fc0
87900880:	ad090000 	sw	t1,0(t0)
87900884:	ad000004 	sw	zero,4(t0)
87900888:	3c09fff0 	lui	t1,0xfff0
8790088c:	ad090040 	sw	t1,64(t0)
87900890:	ad000044 	sw	zero,68(t0)
87900894:	3c091fc0 	lui	t1,0x1fc0
87900898:	352900f3 	ori	t1,t1,0xf3
8790089c:	ad090080 	sw	t1,128(t0)
879008a0:	ad000084 	sw	zero,132(t0)
879008a4:	3c08bfd0 	lui	t0,0xbfd0
879008a8:	ad000088 	sw	zero,136(t0)
879008ac:	3c091000 	lui	t1,0x1000
879008b0:	ad090008 	sw	t1,8(t0)
879008b4:	ad00000c 	sw	zero,12(t0)
879008b8:	3c09f800 	lui	t1,0xf800
879008bc:	ad090048 	sw	t1,72(t0)
879008c0:	ad00004c 	sw	zero,76(t0)
879008c4:	3c091000 	lui	t1,0x1000
879008c8:	35290081 	ori	t1,t1,0x81
879008cc:	ad090088 	sw	t1,136(t0)
879008d0:	ad00008c 	sw	zero,140(t0)
879008d4:	3c08bfd0 	lui	t0,0xbfd0
879008d8:	ad000090 	sw	zero,144(t0)
879008dc:	3c091800 	lui	t1,0x1800
879008e0:	ad090010 	sw	t1,16(t0)
879008e4:	ad000014 	sw	zero,20(t0)
879008e8:	3c09fc00 	lui	t1,0xfc00
879008ec:	ad090050 	sw	t1,80(t0)
879008f0:	ad000054 	sw	zero,84(t0)
879008f4:	3c091800 	lui	t1,0x1800
879008f8:	35290081 	ori	t1,t1,0x81
879008fc:	ad090090 	sw	t1,144(t0)
87900900:	ad000094 	sw	zero,148(t0)
87900904:	3c08bfd0 	lui	t0,0xbfd0
87900908:	ad000098 	sw	zero,152(t0)
8790090c:	3c091c00 	lui	t1,0x1c00
87900910:	ad090018 	sw	t1,24(t0)
87900914:	ad00001c 	sw	zero,28(t0)
87900918:	3c09ffe0 	lui	t1,0xffe0
8790091c:	ad090058 	sw	t1,88(t0)
87900920:	ad00005c 	sw	zero,92(t0)
87900924:	3c091c00 	lui	t1,0x1c00
87900928:	35290081 	ori	t1,t1,0x81
8790092c:	ad090098 	sw	t1,152(t0)
87900930:	ad00009c 	sw	zero,156(t0)
87900934:	3c08bfd0 	lui	t0,0xbfd0
87900938:	ad0000a0 	sw	zero,160(t0)
8790093c:	3c091c20 	lui	t1,0x1c20
87900940:	ad090020 	sw	t1,32(t0)
87900944:	ad000024 	sw	zero,36(t0)
87900948:	3c09ffe0 	lui	t1,0xffe0
8790094c:	ad090060 	sw	t1,96(t0)
87900950:	ad000064 	sw	zero,100(t0)
87900954:	3c091c20 	lui	t1,0x1c20
87900958:	35290082 	ori	t1,t1,0x82
8790095c:	ad0900a0 	sw	t1,160(t0)
87900960:	ad0000a4 	sw	zero,164(t0)
87900964:	3c08bfd0 	lui	t0,0xbfd0
87900968:	ad0000a8 	sw	zero,168(t0)
8790096c:	3c091f00 	lui	t1,0x1f00
87900970:	ad090028 	sw	t1,40(t0)
87900974:	ad00002c 	sw	zero,44(t0)
87900978:	3c09ff00 	lui	t1,0xff00
8790097c:	ad090068 	sw	t1,104(t0)
87900980:	ad00006c 	sw	zero,108(t0)
87900984:	3c091f00 	lui	t1,0x1f00
87900988:	35290083 	ori	t1,t1,0x83
8790098c:	ad0900a8 	sw	t1,168(t0)
87900990:	ad0000ac 	sw	zero,172(t0)
87900994:	3c08bfd0 	lui	t0,0xbfd0
87900998:	ad0000b0 	sw	zero,176(t0)
8790099c:	3c094000 	lui	t1,0x4000
879009a0:	ad090030 	sw	t1,48(t0)
879009a4:	ad000034 	sw	zero,52(t0)
879009a8:	3c09c000 	lui	t1,0xc000
879009ac:	ad090070 	sw	t1,112(t0)
879009b0:	ad000074 	sw	zero,116(t0)
879009b4:	240900f0 	li	t1,240
879009b8:	ad0900b0 	sw	t1,176(t0)
879009bc:	ad0000b4 	sw	zero,180(t0)
879009c0:	3c08bfd0 	lui	t0,0xbfd0
879009c4:	ad0000b8 	sw	zero,184(t0)
879009c8:	24090000 	li	t1,0
879009cc:	ad090038 	sw	t1,56(t0)
879009d0:	ad00003c 	sw	zero,60(t0)
879009d4:	24090000 	li	t1,0
879009d8:	ad090078 	sw	t1,120(t0)
879009dc:	ad00007c 	sw	zero,124(t0)
879009e0:	240900f0 	li	t1,240
879009e4:	ad0900b8 	sw	t1,184(t0)
879009e8:	ad0000bc 	sw	zero,188(t0)
879009ec:	3c048790 	lui	a0,0x8790
879009f0:	24846146 	addiu	a0,a0,24902
879009f4:	04110c56 	bal	87903b50 <stringserial>
879009f8:	00000000 	nop
879009fc:	04110ce8 	bal	87903da0 <ddr2_config>
87900a00:	00000000 	nop
87900a04:	3c048790 	lui	a0,0x8790
87900a08:	2484615c 	addiu	a0,a0,24924
87900a0c:	04110c50 	bal	87903b50 <stringserial>
87900a10:	00000000 	nop
87900a14:	3c04bfd0 	lui	a0,0xbfd0
87900a18:	ac800420 	sw	zero,1056(a0)
87900a1c:	24050002 	li	a1,2
87900a20:	3c121000 	lui	s2,0x1000
87900a24:	3c060100 	lui	a2,0x100
87900a28:	00a62825 	or	a1,a1,a2
87900a2c:	ac850420 	sw	a1,1056(a0)

87900a30 <do_caches>:
do_caches():
87900a30:	3c048790 	lui	a0,0x8790
87900a34:	2484616e 	addiu	a0,a0,24942
87900a38:	04110c45 	bal	87903b50 <stringserial>
87900a3c:	00000000 	nop
87900a40:	24170000 	li	s7,0
87900a44:	241e0000 	li	s8,0
87900a48:	3c048790 	lui	a0,0x8790
87900a4c:	2484617f 	addiu	a0,a0,24959
87900a50:	04110c3f 	bal	87903b50 <stringserial>
87900a54:	00000000 	nop
87900a58:	04110ca1 	bal	87903ce0 <cache_init>
87900a5c:	00000000 	nop
87900a60:	3c048790 	lui	a0,0x8790
87900a64:	24846196 	addiu	a0,a0,24982
87900a68:	04110c39 	bal	87903b50 <stringserial>
87900a6c:	00000000 	nop
87900a70:	40048000 	mfc0	a0,$16
87900a74:	04110c4e 	bal	87903bb0 <hexserial>
87900a78:	00000000 	nop
87900a7c:	3c048790 	lui	a0,0x8790
87900a80:	248461af 	addiu	a0,a0,25007
87900a84:	04110c32 	bal	87903b50 <stringserial>
87900a88:	00000000 	nop
87900a8c:	40048000 	mfc0	a0,$16
87900a90:	2401effc 	li	at,-4100
87900a94:	00812024 	and	a0,a0,at
87900a98:	34840002 	ori	a0,a0,0x2
87900a9c:	40848000 	mtc0	a0,$16

87900aa0 <acpi_begin>:
acpi_begin():
87900aa0:	3c08bfe7 	lui	t0,0xbfe7
87900aa4:	3508c000 	ori	t0,t0,0xc000
87900aa8:	2409ffff 	li	t1,-1
87900aac:	ad090000 	sw	t1,0(t0)
87900ab0:	3c08bfe7 	lui	t0,0xbfe7
87900ab4:	3508c020 	ori	t0,t0,0xc020
87900ab8:	2409ffff 	li	t1,-1
87900abc:	ad090000 	sw	t1,0(t0)
87900ac0:	3c08bfe7 	lui	t0,0xbfe7
87900ac4:	3508c008 	ori	t0,t0,0xc008
87900ac8:	8d090000 	lw	t1,0(t0)
87900acc:	00094a82 	srl	t1,t1,0xa
87900ad0:	31290007 	andi	t1,t1,0x7
87900ad4:	2129fffb 	addi	t1,t1,-5
87900ad8:	15200022 	bnez	t1,87900b64 <acpi_end>
87900adc:	00000000 	nop
87900ae0:	3c048790 	lui	a0,0x8790
87900ae4:	248461b4 	addiu	a0,a0,25012
87900ae8:	04110c19 	bal	87903b50 <stringserial>
87900aec:	00000000 	nop
87900af0:	3c08a01f 	lui	t0,0xa01f
87900af4:	3508fc00 	ori	t0,t0,0xfc00
87900af8:	3c09a01f 	lui	t1,0xa01f
87900afc:	3529fc48 	ori	t1,t1,0xfc48
87900b00:	8d040000 	lw	a0,0(t0)
87900b04:	04110c2a 	bal	87903bb0 <hexserial>
87900b08:	00000000 	nop
87900b0c:	3c048790 	lui	a0,0x8790
87900b10:	248461c2 	addiu	a0,a0,25026
87900b14:	04110c0e 	bal	87903b50 <stringserial>
87900b18:	00000000 	nop
87900b1c:	25080004 	addiu	t0,t0,4
87900b20:	1509fff7 	bne	t0,t1,87900b00 <acpi_begin+0x60>
87900b24:	00000000 	nop
87900b28:	40048000 	mfc0	a0,$16
87900b2c:	2401effc 	li	at,-4100
87900b30:	00812024 	and	a0,a0,at
87900b34:	34840003 	ori	a0,a0,0x3
87900b38:	40848000 	mtc0	a0,$16
87900b3c:	04110bbe 	bal	87903a38 <CPU_TLBClear>
87900b40:	00000000 	nop
87900b44:	3c048790 	lui	a0,0x8790
87900b48:	248461c5 	addiu	a0,a0,25029
87900b4c:	04110c00 	bal	87903b50 <stringserial>
87900b50:	00000000 	nop
87900b54:	04110be4 	bal	87903ae8 <suspend_resume>
87900b58:	00000000 	nop
87900b5c:	1000ffff 	b	87900b5c <acpi_begin+0xbc>
87900b60:	00000000 	nop

87900b64 <acpi_end>:
acpi_end():
87900b64:	3c048790 	lui	a0,0x8790
87900b68:	248461d3 	addiu	a0,a0,25043
87900b6c:	04110bf8 	bal	87903b50 <stringserial>
87900b70:	00000000 	nop
87900b74:	3c04bc30 	lui	a0,0xbc30
87900b78:	34841240 	ori	a0,a0,0x1240
87900b7c:	3c050010 	lui	a1,0x10
87900b80:	ac850000 	sw	a1,0(a0)
87900b84:	24050000 	li	a1,0
87900b88:	ac850000 	sw	a1,0(a0)
87900b8c:	3c04bc30 	lui	a0,0xbc30
87900b90:	348413c0 	ori	a0,a0,0x13c0
87900b94:	3c058000 	lui	a1,0x8000
87900b98:	34a51111 	ori	a1,a1,0x1111
87900b9c:	ac850000 	sw	a1,0(a0)
87900ba0:	3c053333 	lui	a1,0x3333
87900ba4:	34a53333 	ori	a1,a1,0x3333
87900ba8:	ac850020 	sw	a1,32(a0)
87900bac:	3c048790 	lui	a0,0x8790
87900bb0:	248461e0 	addiu	a0,a0,25056
87900bb4:	04110be6 	bal	87903b50 <stringserial>
87900bb8:	00000000 	nop

87900bbc <bootkeytest>:
bootkeytest():
87900bbc:	04110c1e 	bal	87903c38 <tgt_testchar>
87900bc0:	00000000 	nop
87900bc4:	10400b2a 	beqz	v0,87903870 <bootnow>
87900bc8:	00000000 	nop

87900bcc <mycmd_loop>:
mycmd_loop():
87900bcc:	3c048790 	lui	a0,0x8790
87900bd0:	24846206 	addiu	a0,a0,25094
87900bd4:	04110bde 	bal	87903b50 <stringserial>
87900bd8:	00000000 	nop
87900bdc:	04110c1c 	bal	87903c50 <tgt_getchar>
87900be0:	00000000 	nop
87900be4:	24030041 	li	v1,65
87900be8:	10430068 	beq	v0,v1,87900d8c <memtest>
87900bec:	00000000 	nop
87900bf0:	24030042 	li	v1,66
87900bf4:	104300c5 	beq	v0,v1,87900f0c <memtest1>
87900bf8:	00000000 	nop
87900bfc:	24030043 	li	v1,67
87900c00:	10430148 	beq	v0,v1,87901124 <memtest2>
87900c04:	00000000 	nop
87900c08:	24030044 	li	v1,68
87900c0c:	104301bf 	beq	v0,v1,8790130c <memtest3>
87900c10:	00000000 	nop
87900c14:	24030045 	li	v1,69
87900c18:	1043026b 	beq	v0,v1,879015c8 <memtest4>
87900c1c:	00000000 	nop
87900c20:	24030046 	li	v1,70
87900c24:	10430350 	beq	v0,v1,87901968 <memtest5>
87900c28:	00000000 	nop
87900c2c:	24030047 	li	v1,71
87900c30:	104304a9 	beq	v0,v1,87901ed8 <memtest6>
87900c34:	00000000 	nop
87900c38:	24030048 	li	v1,72
87900c3c:	1043050b 	beq	v0,v1,8790206c <memtest7>
87900c40:	00000000 	nop
87900c44:	24030049 	li	v1,73
87900c48:	10430586 	beq	v0,v1,87902264 <memtest8>
87900c4c:	00000000 	nop
87900c50:	2403004a 	li	v1,74
87900c54:	10430648 	beq	v0,v1,87902578 <sumrom>
87900c58:	00000000 	nop
87900c5c:	2403007a 	li	v1,122
87900c60:	10430688 	beq	v0,v1,87902684 <testddrread>
87900c64:	00000000 	nop
87900c68:	24030073 	li	v1,115
87900c6c:	10430662 	beq	v0,v1,879025f8 <testddrwrite>
87900c70:	00000000 	nop
87900c74:	24030076 	li	v1,118
87900c78:	10430670 	beq	v0,v1,8790263c <testddrwrite1>
87900c7c:	00000000 	nop
87900c80:	24030067 	li	v1,103
87900c84:	104306a7 	beq	v0,v1,87902724 <rwtest>
87900c88:	00000000 	nop
87900c8c:	2403006e 	li	v1,110
87900c90:	10430650 	beq	v0,v1,879025d4 <testddrwrite0>
87900c94:	00000000 	nop
87900c98:	24030064 	li	v1,100
87900c9c:	104306ea 	beq	v0,v1,87902848 <mydebug_start>
87900ca0:	00000000 	nop
87900ca4:	24030072 	li	v1,114
87900ca8:	10430009 	beq	v0,v1,87900cd0 <dummyreadtest>
87900cac:	00000000 	nop
87900cb0:	24030077 	li	v1,119
87900cb4:	1043000c 	beq	v0,v1,87900ce8 <dummywritetest>
87900cb8:	00000000 	nop
87900cbc:	2403006a 	li	v1,106
87900cc0:	1043000f 	beq	v0,v1,87900d00 <dummywritetest1>
87900cc4:	00000000 	nop
87900cc8:	10000ae9 	b	87903870 <bootnow>
87900ccc:	00000000 	nop

87900cd0 <dummyreadtest>:
dummyreadtest():
87900cd0:	3c02a000 	lui	v0,0xa000
87900cd4:	8c430000 	lw	v1,0(v0)
87900cd8:	8c440004 	lw	a0,4(v0)
87900cdc:	24420008 	addiu	v0,v0,8
87900ce0:	1000fffc 	b	87900cd4 <dummyreadtest+0x4>
87900ce4:	00000000 	nop

87900ce8 <dummywritetest>:
dummywritetest():
87900ce8:	3c02a000 	lui	v0,0xa000
87900cec:	ac430000 	sw	v1,0(v0)
87900cf0:	ac440004 	sw	a0,4(v0)
87900cf4:	24420008 	addiu	v0,v0,8
87900cf8:	1000fffc 	b	87900cec <dummywritetest+0x4>
87900cfc:	00000000 	nop

87900d00 <dummywritetest1>:
dummywritetest1():
87900d00:	3c02a000 	lui	v0,0xa000
87900d04:	ac400000 	sw	zero,0(v0)
87900d08:	ac410004 	sw	at,4(v0)
87900d0c:	ac400000 	sw	zero,0(v0)
87900d10:	ac410004 	sw	at,4(v0)
87900d14:	ac400000 	sw	zero,0(v0)
87900d18:	ac410004 	sw	at,4(v0)
87900d1c:	ac400000 	sw	zero,0(v0)
87900d20:	ac410004 	sw	at,4(v0)
87900d24:	ac400000 	sw	zero,0(v0)
87900d28:	ac410004 	sw	at,4(v0)
87900d2c:	ac400000 	sw	zero,0(v0)
87900d30:	ac410004 	sw	at,4(v0)
87900d34:	ac400000 	sw	zero,0(v0)
87900d38:	ac410004 	sw	at,4(v0)
87900d3c:	ac400000 	sw	zero,0(v0)
87900d40:	ac410004 	sw	at,4(v0)
87900d44:	ac400000 	sw	zero,0(v0)
87900d48:	ac410004 	sw	at,4(v0)
87900d4c:	ac400000 	sw	zero,0(v0)
87900d50:	ac410004 	sw	at,4(v0)
87900d54:	ac400000 	sw	zero,0(v0)
87900d58:	ac410004 	sw	at,4(v0)
87900d5c:	ac400000 	sw	zero,0(v0)
87900d60:	ac410004 	sw	at,4(v0)
87900d64:	ac400000 	sw	zero,0(v0)
87900d68:	ac410004 	sw	at,4(v0)
87900d6c:	ac400000 	sw	zero,0(v0)
87900d70:	ac410004 	sw	at,4(v0)
87900d74:	ac400000 	sw	zero,0(v0)
87900d78:	ac410004 	sw	at,4(v0)
87900d7c:	ac400000 	sw	zero,0(v0)
87900d80:	ac410004 	sw	at,4(v0)
87900d84:	1000ffdf 	b	87900d04 <dummywritetest1+0x4>
87900d88:	00000000 	nop

87900d8c <memtest>:
memtest():
87900d8c:	00000000 	nop
87900d90:	3c048790 	lui	a0,0x8790
87900d94:	24846351 	addiu	a0,a0,25425
87900d98:	04110b6d 	bal	87903b50 <stringserial>
87900d9c:	00000000 	nop
87900da0:	00006821 	move	t5,zero
87900da4:	240f000a 	li	t7,10
87900da8:	3c08a400 	lui	t0,0xa400
87900dac:	3c09a000 	lui	t1,0xa000
87900db0:	240affff 	li	t2,-1
87900db4:	ad2a0000 	sw	t2,0(t1)
87900db8:	8d2b0000 	lw	t3,0(t1)
87900dbc:	116a0003 	beq	t3,t2,87900dcc <memtest+0x40>
87900dc0:	00000000 	nop
87900dc4:	04110026 	bal	87900e60 <skipdot+0x34>
87900dc8:	00000000 	nop
87900dcc:	01405027 	nor	t2,t2,zero
87900dd0:	ad2a0000 	sw	t2,0(t1)
87900dd4:	8d2b0000 	lw	t3,0(t1)
87900dd8:	116a0003 	beq	t3,t2,87900de8 <memtest+0x5c>
87900ddc:	00000000 	nop
87900de0:	0411001f 	bal	87900e60 <skipdot+0x34>
87900de4:	00000000 	nop
87900de8:	01405027 	nor	t2,t2,zero
87900dec:	254a0000 	addiu	t2,t2,0
87900df0:	25290004 	addiu	t1,t1,4
87900df4:	1128000f 	beq	t1,t0,87900e34 <skipdot+0x8>
87900df8:	00000000 	nop
87900dfc:	3c01000f 	lui	at,0xf
87900e00:	3421ffff 	ori	at,at,0xffff
87900e04:	01216024 	and	t4,t1,at
87900e08:	15800008 	bnez	t4,87900e2c <skipdot>
87900e0c:	00000000 	nop
87900e10:	01202021 	move	a0,t1
87900e14:	04110b66 	bal	87903bb0 <hexserial>
87900e18:	00000000 	nop
87900e1c:	3c048790 	lui	a0,0x8790
87900e20:	24846366 	addiu	a0,a0,25446
87900e24:	04110b4a 	bal	87903b50 <stringserial>
87900e28:	00000000 	nop

87900e2c <skipdot>:
skipdot():
87900e2c:	1000ffe1 	b	87900db4 <memtest+0x28>
87900e30:	00000000 	nop
87900e34:	3c048790 	lui	a0,0x8790
87900e38:	24846368 	addiu	a0,a0,25448
87900e3c:	04110b44 	bal	87903b50 <stringserial>
87900e40:	00000000 	nop
87900e44:	21efffff 	addi	t7,t7,-1
87900e48:	11e00003 	beqz	t7,87900e58 <skipdot+0x2c>
87900e4c:	00000000 	nop
87900e50:	1000ffd5 	b	87900da8 <memtest+0x1c>
87900e54:	00000000 	nop
87900e58:	1000ffff 	b	87900e58 <skipdot+0x2c>
87900e5c:	00000000 	nop
87900e60:	03e07021 	move	t6,ra
87900e64:	3c048790 	lui	a0,0x8790
87900e68:	24846378 	addiu	a0,a0,25464
87900e6c:	04110b38 	bal	87903b50 <stringserial>
87900e70:	00000000 	nop
87900e74:	01202021 	move	a0,t1
87900e78:	04110b4d 	bal	87903bb0 <hexserial>
87900e7c:	00000000 	nop
87900e80:	3c048790 	lui	a0,0x8790
87900e84:	24846391 	addiu	a0,a0,25489
87900e88:	04110b31 	bal	87903b50 <stringserial>
87900e8c:	00000000 	nop
87900e90:	01402021 	move	a0,t2
87900e94:	24050008 	li	a1,8
87900e98:	04110a49 	bal	879037c0 <Hexserial>
87900e9c:	00000000 	nop
87900ea0:	3c048790 	lui	a0,0x8790
87900ea4:	2484639a 	addiu	a0,a0,25498
87900ea8:	04110b29 	bal	87903b50 <stringserial>
87900eac:	00000000 	nop
87900eb0:	01602021 	move	a0,t3
87900eb4:	24050008 	li	a1,8
87900eb8:	04110a41 	bal	879037c0 <Hexserial>
87900ebc:	00000000 	nop
87900ec0:	3c048790 	lui	a0,0x8790
87900ec4:	248463a3 	addiu	a0,a0,25507
87900ec8:	04110b21 	bal	87903b50 <stringserial>
87900ecc:	00000000 	nop
87900ed0:	014b2026 	xor	a0,t2,t3
87900ed4:	01a46825 	or	t5,t5,a0
87900ed8:	24050008 	li	a1,8
87900edc:	04110a38 	bal	879037c0 <Hexserial>
87900ee0:	00000000 	nop
87900ee4:	3c048790 	lui	a0,0x8790
87900ee8:	248463ab 	addiu	a0,a0,25515
87900eec:	04110b18 	bal	87903b50 <stringserial>
87900ef0:	00000000 	nop
87900ef4:	01a02021 	move	a0,t5
87900ef8:	24050008 	li	a1,8
87900efc:	04110a30 	bal	879037c0 <Hexserial>
87900f00:	00000000 	nop
87900f04:	01c00008 	jr	t6
87900f08:	00000000 	nop

87900f0c <memtest1>:
memtest1():
87900f0c:	00000000 	nop
87900f10:	3c048790 	lui	a0,0x8790
87900f14:	248463b8 	addiu	a0,a0,25528
87900f18:	04110b0d 	bal	87903b50 <stringserial>
87900f1c:	00000000 	nop
87900f20:	00006821 	move	t5,zero
87900f24:	240affff 	li	t2,-1
87900f28:	3c09a000 	lui	t1,0xa000
87900f2c:	3c0c0004 	lui	t4,0x4
87900f30:	ad2a0000 	sw	t2,0(t1)
87900f34:	254affff 	addiu	t2,t2,-1
87900f38:	25290004 	addiu	t1,t1,4
87900f3c:	258cffff 	addiu	t4,t4,-1
87900f40:	1580fffb 	bnez	t4,87900f30 <memtest1+0x24>
87900f44:	00000000 	nop
87900f48:	2404002b 	li	a0,43
87900f4c:	04110b2c 	bal	87903c00 <tgt_putchar>
87900f50:	00000000 	nop
87900f54:	3c010004 	lui	at,0x4
87900f58:	01415021 	addu	t2,t2,at
87900f5c:	3c010010 	lui	at,0x10
87900f60:	01214823 	subu	t1,t1,at
87900f64:	3c0c0004 	lui	t4,0x4
87900f68:	8d2b0000 	lw	t3,0(t1)
87900f6c:	116a0003 	beq	t3,t2,87900f7c <memtest1+0x70>
87900f70:	00000000 	nop
87900f74:	04110040 	bal	87901078 <memtest1+0x16c>
87900f78:	00000000 	nop
87900f7c:	254affff 	addiu	t2,t2,-1
87900f80:	25290004 	addiu	t1,t1,4
87900f84:	258cffff 	addiu	t4,t4,-1
87900f88:	1580fff7 	bnez	t4,87900f68 <memtest1+0x5c>
87900f8c:	00000000 	nop
87900f90:	2404002d 	li	a0,45
87900f94:	04110b1a 	bal	87903c00 <tgt_putchar>
87900f98:	00000000 	nop
87900f9c:	3c010004 	lui	at,0x4
87900fa0:	01415021 	addu	t2,t2,at
87900fa4:	3c010010 	lui	at,0x10
87900fa8:	01214823 	subu	t1,t1,at
87900fac:	01405027 	nor	t2,t2,zero
87900fb0:	3c0c0004 	lui	t4,0x4
87900fb4:	ad2a0000 	sw	t2,0(t1)
87900fb8:	254affff 	addiu	t2,t2,-1
87900fbc:	25290004 	addiu	t1,t1,4
87900fc0:	258cffff 	addiu	t4,t4,-1
87900fc4:	1580fffb 	bnez	t4,87900fb4 <memtest1+0xa8>
87900fc8:	00000000 	nop
87900fcc:	2404002b 	li	a0,43
87900fd0:	04110b0b 	bal	87903c00 <tgt_putchar>
87900fd4:	00000000 	nop
87900fd8:	3c010004 	lui	at,0x4
87900fdc:	01415021 	addu	t2,t2,at
87900fe0:	3c010010 	lui	at,0x10
87900fe4:	01214823 	subu	t1,t1,at
87900fe8:	3c0c0004 	lui	t4,0x4
87900fec:	8d2b0000 	lw	t3,0(t1)
87900ff0:	116a0003 	beq	t3,t2,87901000 <memtest1+0xf4>
87900ff4:	00000000 	nop
87900ff8:	0411001f 	bal	87901078 <memtest1+0x16c>
87900ffc:	00000000 	nop
87901000:	254affff 	addiu	t2,t2,-1
87901004:	25290004 	addiu	t1,t1,4
87901008:	258cffff 	addiu	t4,t4,-1
8790100c:	1580fff7 	bnez	t4,87900fec <memtest1+0xe0>
87901010:	00000000 	nop
87901014:	2404002d 	li	a0,45
87901018:	04110af9 	bal	87903c00 <tgt_putchar>
8790101c:	00000000 	nop
87901020:	3c08000f 	lui	t0,0xf
87901024:	3508ffff 	ori	t0,t0,0xffff
87901028:	01094024 	and	t0,t0,t1
8790102c:	15000008 	bnez	t0,87901050 <memtest1+0x144>
87901030:	00000000 	nop
87901034:	01202021 	move	a0,t1
87901038:	04110add 	bal	87903bb0 <hexserial>
8790103c:	00000000 	nop
87901040:	3c048790 	lui	a0,0x8790
87901044:	248463cd 	addiu	a0,a0,25549
87901048:	04110ac1 	bal	87903b50 <stringserial>
8790104c:	00000000 	nop
87901050:	3c08a400 	lui	t0,0xa400
87901054:	01094023 	subu	t0,t0,t1
87901058:	1d00ffb4 	bgtz	t0,87900f2c <memtest1+0x20>
8790105c:	00000000 	nop
87901060:	3c048790 	lui	a0,0x8790
87901064:	248463d0 	addiu	a0,a0,25552
87901068:	04110ab9 	bal	87903b50 <stringserial>
8790106c:	00000000 	nop
87901070:	1000ffff 	b	87901070 <memtest1+0x164>
87901074:	00000000 	nop
87901078:	03e07021 	move	t6,ra
8790107c:	3c048790 	lui	a0,0x8790
87901080:	248463df 	addiu	a0,a0,25567
87901084:	04110ab2 	bal	87903b50 <stringserial>
87901088:	00000000 	nop
8790108c:	01202021 	move	a0,t1
87901090:	04110ac7 	bal	87903bb0 <hexserial>
87901094:	00000000 	nop
87901098:	3c048790 	lui	a0,0x8790
8790109c:	248463f8 	addiu	a0,a0,25592
879010a0:	04110aab 	bal	87903b50 <stringserial>
879010a4:	00000000 	nop
879010a8:	01402021 	move	a0,t2
879010ac:	24050008 	li	a1,8
879010b0:	041109c3 	bal	879037c0 <Hexserial>
879010b4:	00000000 	nop
879010b8:	3c048790 	lui	a0,0x8790
879010bc:	24846401 	addiu	a0,a0,25601
879010c0:	04110aa3 	bal	87903b50 <stringserial>
879010c4:	00000000 	nop
879010c8:	01602021 	move	a0,t3
879010cc:	24050008 	li	a1,8
879010d0:	041109bb 	bal	879037c0 <Hexserial>
879010d4:	00000000 	nop
879010d8:	3c048790 	lui	a0,0x8790
879010dc:	2484640a 	addiu	a0,a0,25610
879010e0:	04110a9b 	bal	87903b50 <stringserial>
879010e4:	00000000 	nop
879010e8:	014b2026 	xor	a0,t2,t3
879010ec:	01a46825 	or	t5,t5,a0
879010f0:	24050008 	li	a1,8
879010f4:	041109b2 	bal	879037c0 <Hexserial>
879010f8:	00000000 	nop
879010fc:	3c048790 	lui	a0,0x8790
87901100:	24846412 	addiu	a0,a0,25618
87901104:	04110a92 	bal	87903b50 <stringserial>
87901108:	00000000 	nop
8790110c:	01a02021 	move	a0,t5
87901110:	24050008 	li	a1,8
87901114:	041109aa 	bal	879037c0 <Hexserial>
87901118:	00000000 	nop
8790111c:	01c00008 	jr	t6
87901120:	00000000 	nop

87901124 <memtest2>:
memtest2():
87901124:	00000000 	nop
87901128:	3c048790 	lui	a0,0x8790
8790112c:	2484641f 	addiu	a0,a0,25631
87901130:	04110a87 	bal	87903b50 <stringserial>
87901134:	00000000 	nop
87901138:	00006821 	move	t5,zero
8790113c:	240affff 	li	t2,-1
87901140:	3c09a000 	lui	t1,0xa000
87901144:	3c0c0004 	lui	t4,0x4
87901148:	ad2a0000 	sw	t2,0(t1)
8790114c:	254affff 	addiu	t2,t2,-1
87901150:	25290004 	addiu	t1,t1,4
87901154:	258cffff 	addiu	t4,t4,-1
87901158:	1580fffb 	bnez	t4,87901148 <memtest2+0x24>
8790115c:	00000000 	nop
87901160:	3c010004 	lui	at,0x4
87901164:	01415021 	addu	t2,t2,at
87901168:	3c010010 	lui	at,0x10
8790116c:	01214823 	subu	t1,t1,at
87901170:	3c0c0004 	lui	t4,0x4
87901174:	8d2b0000 	lw	t3,0(t1)
87901178:	116a0003 	beq	t3,t2,87901188 <memtest2+0x64>
8790117c:	00000000 	nop
87901180:	04110037 	bal	87901260 <memtest2+0x13c>
87901184:	00000000 	nop
87901188:	254affff 	addiu	t2,t2,-1
8790118c:	25290004 	addiu	t1,t1,4
87901190:	258cffff 	addiu	t4,t4,-1
87901194:	1580fff7 	bnez	t4,87901174 <memtest2+0x50>
87901198:	00000000 	nop
8790119c:	3c010004 	lui	at,0x4
879011a0:	01415021 	addu	t2,t2,at
879011a4:	3c010010 	lui	at,0x10
879011a8:	01214823 	subu	t1,t1,at
879011ac:	01405027 	nor	t2,t2,zero
879011b0:	3c0c0004 	lui	t4,0x4
879011b4:	ad2a0000 	sw	t2,0(t1)
879011b8:	254affff 	addiu	t2,t2,-1
879011bc:	25290004 	addiu	t1,t1,4
879011c0:	258cffff 	addiu	t4,t4,-1
879011c4:	1580fffb 	bnez	t4,879011b4 <memtest2+0x90>
879011c8:	00000000 	nop
879011cc:	3c010004 	lui	at,0x4
879011d0:	01415021 	addu	t2,t2,at
879011d4:	3c010010 	lui	at,0x10
879011d8:	01214823 	subu	t1,t1,at
879011dc:	3c0c0004 	lui	t4,0x4
879011e0:	8d2b0000 	lw	t3,0(t1)
879011e4:	116a0003 	beq	t3,t2,879011f4 <memtest2+0xd0>
879011e8:	00000000 	nop
879011ec:	0411001c 	bal	87901260 <memtest2+0x13c>
879011f0:	00000000 	nop
879011f4:	254affff 	addiu	t2,t2,-1
879011f8:	25290004 	addiu	t1,t1,4
879011fc:	258cffff 	addiu	t4,t4,-1
87901200:	1580fff7 	bnez	t4,879011e0 <memtest2+0xbc>
87901204:	00000000 	nop
87901208:	3c08000f 	lui	t0,0xf
8790120c:	3508ffff 	ori	t0,t0,0xffff
87901210:	01094024 	and	t0,t0,t1
87901214:	15000008 	bnez	t0,87901238 <memtest2+0x114>
87901218:	00000000 	nop
8790121c:	01202021 	move	a0,t1
87901220:	04110a63 	bal	87903bb0 <hexserial>
87901224:	00000000 	nop
87901228:	3c048790 	lui	a0,0x8790
8790122c:	24846434 	addiu	a0,a0,25652
87901230:	04110a47 	bal	87903b50 <stringserial>
87901234:	00000000 	nop
87901238:	3c08a400 	lui	t0,0xa400
8790123c:	01094023 	subu	t0,t0,t1
87901240:	1d00ffc0 	bgtz	t0,87901144 <memtest2+0x20>
87901244:	00000000 	nop
87901248:	3c048790 	lui	a0,0x8790
8790124c:	24846436 	addiu	a0,a0,25654
87901250:	04110a3f 	bal	87903b50 <stringserial>
87901254:	00000000 	nop
87901258:	1000ffff 	b	87901258 <memtest2+0x134>
8790125c:	00000000 	nop
87901260:	03e07021 	move	t6,ra
87901264:	3c048790 	lui	a0,0x8790
87901268:	24846445 	addiu	a0,a0,25669
8790126c:	04110a38 	bal	87903b50 <stringserial>
87901270:	00000000 	nop
87901274:	01202021 	move	a0,t1
87901278:	04110a4d 	bal	87903bb0 <hexserial>
8790127c:	00000000 	nop
87901280:	3c048790 	lui	a0,0x8790
87901284:	2484645e 	addiu	a0,a0,25694
87901288:	04110a31 	bal	87903b50 <stringserial>
8790128c:	00000000 	nop
87901290:	01402021 	move	a0,t2
87901294:	24050008 	li	a1,8
87901298:	04110949 	bal	879037c0 <Hexserial>
8790129c:	00000000 	nop
879012a0:	3c048790 	lui	a0,0x8790
879012a4:	24846467 	addiu	a0,a0,25703
879012a8:	04110a29 	bal	87903b50 <stringserial>
879012ac:	00000000 	nop
879012b0:	01602021 	move	a0,t3
879012b4:	24050008 	li	a1,8
879012b8:	04110941 	bal	879037c0 <Hexserial>
879012bc:	00000000 	nop
879012c0:	3c048790 	lui	a0,0x8790
879012c4:	24846470 	addiu	a0,a0,25712
879012c8:	04110a21 	bal	87903b50 <stringserial>
879012cc:	00000000 	nop
879012d0:	014b2026 	xor	a0,t2,t3
879012d4:	01a46825 	or	t5,t5,a0
879012d8:	24050008 	li	a1,8
879012dc:	04110938 	bal	879037c0 <Hexserial>
879012e0:	00000000 	nop
879012e4:	3c048790 	lui	a0,0x8790
879012e8:	24846478 	addiu	a0,a0,25720
879012ec:	04110a18 	bal	87903b50 <stringserial>
879012f0:	00000000 	nop
879012f4:	01a02021 	move	a0,t5
879012f8:	24050008 	li	a1,8
879012fc:	04110930 	bal	879037c0 <Hexserial>
87901300:	00000000 	nop
87901304:	01c00008 	jr	t6
87901308:	00000000 	nop

8790130c <memtest3>:
memtest3():
8790130c:	00000000 	nop
87901310:	3c048790 	lui	a0,0x8790
87901314:	24846485 	addiu	a0,a0,25733
87901318:	04110a0d 	bal	87903b50 <stringserial>
8790131c:	00000000 	nop
87901320:	00007821 	move	t7,zero
87901324:	3c08a400 	lui	t0,0xa400
87901328:	3c09a000 	lui	t1,0xa000
8790132c:	240affff 	li	t2,-1
87901330:	3c0da010 	lui	t5,0xa010
87901334:	ad2a0000 	sw	t2,0(t1)
87901338:	254affff 	addiu	t2,t2,-1
8790133c:	25290004 	addiu	t1,t1,4
87901340:	152d000d 	bne	t1,t5,87901378 <memtest3+0x6c>
87901344:	00000000 	nop
87901348:	24040077 	li	a0,119
8790134c:	04110a2c 	bal	87903c00 <tgt_putchar>
87901350:	00000000 	nop
87901354:	01202021 	move	a0,t1
87901358:	04110a15 	bal	87903bb0 <hexserial>
8790135c:	00000000 	nop
87901360:	3c048790 	lui	a0,0x8790
87901364:	2484649a 	addiu	a0,a0,25754
87901368:	041109f9 	bal	87903b50 <stringserial>
8790136c:	00000000 	nop
87901370:	3c010010 	lui	at,0x10
87901374:	01a16821 	addu	t5,t5,at
87901378:	1528ffee 	bne	t1,t0,87901334 <memtest3+0x28>
8790137c:	00000000 	nop
87901380:	3c048790 	lui	a0,0x8790
87901384:	2484649c 	addiu	a0,a0,25756
87901388:	041109f1 	bal	87903b50 <stringserial>
8790138c:	00000000 	nop
87901390:	3c08a400 	lui	t0,0xa400
87901394:	3c09a000 	lui	t1,0xa000
87901398:	3c0da010 	lui	t5,0xa010
8790139c:	240affff 	li	t2,-1
879013a0:	8d2b0000 	lw	t3,0(t1)
879013a4:	116a0003 	beq	t3,t2,879013b4 <memtest3+0xa8>
879013a8:	00000000 	nop
879013ac:	0411005b 	bal	8790151c <memtest3+0x210>
879013b0:	00000000 	nop
879013b4:	254affff 	addiu	t2,t2,-1
879013b8:	25290004 	addiu	t1,t1,4
879013bc:	152d000d 	bne	t1,t5,879013f4 <memtest3+0xe8>
879013c0:	00000000 	nop
879013c4:	24040072 	li	a0,114
879013c8:	04110a0d 	bal	87903c00 <tgt_putchar>
879013cc:	00000000 	nop
879013d0:	01202021 	move	a0,t1
879013d4:	041109f6 	bal	87903bb0 <hexserial>
879013d8:	00000000 	nop
879013dc:	3c048790 	lui	a0,0x8790
879013e0:	2484649f 	addiu	a0,a0,25759
879013e4:	041109da 	bal	87903b50 <stringserial>
879013e8:	00000000 	nop
879013ec:	3c010010 	lui	at,0x10
879013f0:	01a16821 	addu	t5,t5,at
879013f4:	11280003 	beq	t1,t0,87901404 <memtest3+0xf8>
879013f8:	00000000 	nop
879013fc:	1000ffe8 	b	879013a0 <memtest3+0x94>
87901400:	00000000 	nop
87901404:	3c048790 	lui	a0,0x8790
87901408:	248464a1 	addiu	a0,a0,25761
8790140c:	041109d0 	bal	87903b50 <stringserial>
87901410:	00000000 	nop
87901414:	3c08a400 	lui	t0,0xa400
87901418:	3c09a000 	lui	t1,0xa000
8790141c:	240a0000 	li	t2,0
87901420:	3c0da010 	lui	t5,0xa010
87901424:	ad2a0000 	sw	t2,0(t1)
87901428:	254affff 	addiu	t2,t2,-1
8790142c:	25290004 	addiu	t1,t1,4
87901430:	152d000d 	bne	t1,t5,87901468 <memtest3+0x15c>
87901434:	00000000 	nop
87901438:	24040077 	li	a0,119
8790143c:	041109f0 	bal	87903c00 <tgt_putchar>
87901440:	00000000 	nop
87901444:	01202021 	move	a0,t1
87901448:	041109d9 	bal	87903bb0 <hexserial>
8790144c:	00000000 	nop
87901450:	3c048790 	lui	a0,0x8790
87901454:	248464a4 	addiu	a0,a0,25764
87901458:	041109bd 	bal	87903b50 <stringserial>
8790145c:	00000000 	nop
87901460:	3c010010 	lui	at,0x10
87901464:	01a16821 	addu	t5,t5,at
87901468:	1528ffee 	bne	t1,t0,87901424 <memtest3+0x118>
8790146c:	00000000 	nop
87901470:	3c048790 	lui	a0,0x8790
87901474:	248464a6 	addiu	a0,a0,25766
87901478:	041109b5 	bal	87903b50 <stringserial>
8790147c:	00000000 	nop
87901480:	3c08a400 	lui	t0,0xa400
87901484:	3c09a000 	lui	t1,0xa000
87901488:	3c0da010 	lui	t5,0xa010
8790148c:	240a0000 	li	t2,0
87901490:	8d2b0000 	lw	t3,0(t1)
87901494:	116a0003 	beq	t3,t2,879014a4 <memtest3+0x198>
87901498:	00000000 	nop
8790149c:	0411001f 	bal	8790151c <memtest3+0x210>
879014a0:	00000000 	nop
879014a4:	254affff 	addiu	t2,t2,-1
879014a8:	25290004 	addiu	t1,t1,4
879014ac:	152d000d 	bne	t1,t5,879014e4 <memtest3+0x1d8>
879014b0:	00000000 	nop
879014b4:	24040072 	li	a0,114
879014b8:	041109d1 	bal	87903c00 <tgt_putchar>
879014bc:	00000000 	nop
879014c0:	01202021 	move	a0,t1
879014c4:	041109ba 	bal	87903bb0 <hexserial>
879014c8:	00000000 	nop
879014cc:	3c048790 	lui	a0,0x8790
879014d0:	248464a9 	addiu	a0,a0,25769
879014d4:	0411099e 	bal	87903b50 <stringserial>
879014d8:	00000000 	nop
879014dc:	3c010010 	lui	at,0x10
879014e0:	01a16821 	addu	t5,t5,at
879014e4:	11280003 	beq	t1,t0,879014f4 <memtest3+0x1e8>
879014e8:	00000000 	nop
879014ec:	1000ffe8 	b	87901490 <memtest3+0x184>
879014f0:	00000000 	nop
879014f4:	3c048790 	lui	a0,0x8790
879014f8:	248464ab 	addiu	a0,a0,25771
879014fc:	04110994 	bal	87903b50 <stringserial>
87901500:	00000000 	nop
87901504:	3c048790 	lui	a0,0x8790
87901508:	248464ae 	addiu	a0,a0,25774
8790150c:	04110990 	bal	87903b50 <stringserial>
87901510:	00000000 	nop
87901514:	1000ffff 	b	87901514 <memtest3+0x208>
87901518:	00000000 	nop
8790151c:	03e07021 	move	t6,ra
87901520:	3c048790 	lui	a0,0x8790
87901524:	248464bd 	addiu	a0,a0,25789
87901528:	04110989 	bal	87903b50 <stringserial>
8790152c:	00000000 	nop
87901530:	01202021 	move	a0,t1
87901534:	0411099e 	bal	87903bb0 <hexserial>
87901538:	00000000 	nop
8790153c:	3c048790 	lui	a0,0x8790
87901540:	248464d6 	addiu	a0,a0,25814
87901544:	04110982 	bal	87903b50 <stringserial>
87901548:	00000000 	nop
8790154c:	01402021 	move	a0,t2
87901550:	24050008 	li	a1,8
87901554:	0411089a 	bal	879037c0 <Hexserial>
87901558:	00000000 	nop
8790155c:	3c048790 	lui	a0,0x8790
87901560:	248464df 	addiu	a0,a0,25823
87901564:	0411097a 	bal	87903b50 <stringserial>
87901568:	00000000 	nop
8790156c:	01602021 	move	a0,t3
87901570:	24050008 	li	a1,8
87901574:	04110892 	bal	879037c0 <Hexserial>
87901578:	00000000 	nop
8790157c:	3c048790 	lui	a0,0x8790
87901580:	248464e8 	addiu	a0,a0,25832
87901584:	04110972 	bal	87903b50 <stringserial>
87901588:	00000000 	nop
8790158c:	014b2026 	xor	a0,t2,t3
87901590:	01e47825 	or	t7,t7,a0
87901594:	24050008 	li	a1,8
87901598:	04110889 	bal	879037c0 <Hexserial>
8790159c:	00000000 	nop
879015a0:	3c048790 	lui	a0,0x8790
879015a4:	248464f0 	addiu	a0,a0,25840
879015a8:	04110969 	bal	87903b50 <stringserial>
879015ac:	00000000 	nop
879015b0:	01e02021 	move	a0,t7
879015b4:	24050008 	li	a1,8
879015b8:	04110881 	bal	879037c0 <Hexserial>
879015bc:	00000000 	nop
879015c0:	01c00008 	jr	t6
879015c4:	00000000 	nop

879015c8 <memtest4>:
memtest4():
879015c8:	3c048790 	lui	a0,0x8790
879015cc:	248464fd 	addiu	a0,a0,25853
879015d0:	0411095f 	bal	87903b50 <stringserial>
879015d4:	00000000 	nop
879015d8:	3c088790 	lui	t0,0x8790
879015dc:	250816d8 	addiu	t0,t0,5848
879015e0:	01104021 	addu	t0,t0,s0
879015e4:	3c098790 	lui	t1,0x8790
879015e8:	25291968 	addiu	t1,t1,6504
879015ec:	01304821 	addu	t1,t1,s0
879015f0:	3c0a8000 	lui	t2,0x8000
879015f4:	3c01a000 	lui	at,0xa000
879015f8:	01415025 	or	t2,t2,at
879015fc:	8d020000 	lw	v0,0(t0)
87901600:	ad420000 	sw	v0,0(t2)
87901604:	25080004 	addiu	t0,t0,4
87901608:	254a0004 	addiu	t2,t2,4
8790160c:	0128082a 	slt	at,t1,t0
87901610:	1020fffa 	beqz	at,879015fc <memtest4+0x34>
87901614:	00000000 	nop
87901618:	3c048790 	lui	a0,0x8790
8790161c:	24846510 	addiu	a0,a0,25872
87901620:	0411094b 	bal	87903b50 <stringserial>
87901624:	00000000 	nop
87901628:	00006821 	move	t5,zero
8790162c:	3c0f8790 	lui	t7,0x8790
87901630:	25ef16d8 	addiu	t7,t7,5848
87901634:	01f07821 	addu	t7,t7,s0
87901638:	3c0c8790 	lui	t4,0x8790
8790163c:	258c1968 	addiu	t4,t4,6504
87901640:	01906021 	addu	t4,t4,s0
87901644:	3c098000 	lui	t1,0x8000
87901648:	3c01a000 	lui	at,0xa000
8790164c:	01214825 	or	t1,t1,at
87901650:	3c048790 	lui	a0,0x8790
87901654:	24846520 	addiu	a0,a0,25888
87901658:	0411093d 	bal	87903b50 <stringserial>
8790165c:	00000000 	nop
87901660:	8dea0000 	lw	t2,0(t7)
87901664:	8d2b0000 	lw	t3,0(t1)
87901668:	116a0003 	beq	t3,t2,87901678 <memtest4+0xb0>
8790166c:	00000000 	nop
87901670:	04110073 	bal	87901840 <testmem0_start+0x168>
87901674:	00000000 	nop
87901678:	25ef0004 	addiu	t7,t7,4
8790167c:	25290004 	addiu	t1,t1,4
87901680:	018f082a 	slt	at,t4,t7
87901684:	1020fff6 	beqz	at,87901660 <memtest4+0x98>
87901688:	00000000 	nop
8790168c:	15a00008 	bnez	t5,879016b0 <memtest4+0xe8>
87901690:	00000000 	nop
87901694:	3c048790 	lui	a0,0x8790
87901698:	2484652a 	addiu	a0,a0,25898
8790169c:	0411092c 	bal	87903b50 <stringserial>
879016a0:	00000000 	nop
879016a4:	3c088000 	lui	t0,0x8000
879016a8:	01000008 	jr	t0
879016ac:	00000000 	nop
879016b0:	3c048790 	lui	a0,0x8790
879016b4:	2484653e 	addiu	a0,a0,25918
879016b8:	3c028790 	lui	v0,0x8790
879016bc:	24423b50 	addiu	v0,v0,15184
879016c0:	00501021 	addu	v0,v0,s0
879016c4:	0040f809 	jalr	v0
879016c8:	00000000 	nop
879016cc:	1000ffff 	b	879016cc <memtest4+0x104>
879016d0:	00000000 	nop
879016d4:	00000000 	nop

879016d8 <testmem0_start>:
testmem0_start():
879016d8:	3c048790 	lui	a0,0x8790
879016dc:	24846551 	addiu	a0,a0,25937
879016e0:	3c028790 	lui	v0,0x8790
879016e4:	24423b50 	addiu	v0,v0,15184
879016e8:	00501021 	addu	v0,v0,s0
879016ec:	0040f809 	jalr	v0
879016f0:	00000000 	nop
879016f4:	00006821 	move	t5,zero
879016f8:	240affff 	li	t2,-1
879016fc:	3c098010 	lui	t1,0x8010
87901700:	3c0c0004 	lui	t4,0x4
87901704:	ad2a0000 	sw	t2,0(t1)
87901708:	254affff 	addiu	t2,t2,-1
8790170c:	25290004 	addiu	t1,t1,4
87901710:	258cffff 	addiu	t4,t4,-1
87901714:	1580fffb 	bnez	t4,87901704 <testmem0_start+0x2c>
87901718:	00000000 	nop
8790171c:	3c010004 	lui	at,0x4
87901720:	01415021 	addu	t2,t2,at
87901724:	3c010010 	lui	at,0x10
87901728:	01214823 	subu	t1,t1,at
8790172c:	3c0c0004 	lui	t4,0x4
87901730:	8d2b0000 	lw	t3,0(t1)
87901734:	116a0003 	beq	t3,t2,87901744 <testmem0_start+0x6c>
87901738:	00000000 	nop
8790173c:	04110040 	bal	87901840 <testmem0_start+0x168>
87901740:	00000000 	nop
87901744:	254affff 	addiu	t2,t2,-1
87901748:	25290004 	addiu	t1,t1,4
8790174c:	258cffff 	addiu	t4,t4,-1
87901750:	1580fff7 	bnez	t4,87901730 <testmem0_start+0x58>
87901754:	00000000 	nop
87901758:	3c010004 	lui	at,0x4
8790175c:	01415021 	addu	t2,t2,at
87901760:	3c010010 	lui	at,0x10
87901764:	01214823 	subu	t1,t1,at
87901768:	01405027 	nor	t2,t2,zero
8790176c:	3c0c0004 	lui	t4,0x4
87901770:	ad2a0000 	sw	t2,0(t1)
87901774:	254affff 	addiu	t2,t2,-1
87901778:	25290004 	addiu	t1,t1,4
8790177c:	258cffff 	addiu	t4,t4,-1
87901780:	1580fffb 	bnez	t4,87901770 <testmem0_start+0x98>
87901784:	00000000 	nop
87901788:	3c010004 	lui	at,0x4
8790178c:	01415021 	addu	t2,t2,at
87901790:	3c010010 	lui	at,0x10
87901794:	01214823 	subu	t1,t1,at
87901798:	3c0c0004 	lui	t4,0x4
8790179c:	8d2b0000 	lw	t3,0(t1)
879017a0:	116a0003 	beq	t3,t2,879017b0 <testmem0_start+0xd8>
879017a4:	00000000 	nop
879017a8:	04110025 	bal	87901840 <testmem0_start+0x168>
879017ac:	00000000 	nop
879017b0:	254affff 	addiu	t2,t2,-1
879017b4:	25290004 	addiu	t1,t1,4
879017b8:	258cffff 	addiu	t4,t4,-1
879017bc:	1580fff7 	bnez	t4,8790179c <testmem0_start+0xc4>
879017c0:	00000000 	nop
879017c4:	3c08000f 	lui	t0,0xf
879017c8:	3508ffff 	ori	t0,t0,0xffff
879017cc:	01094024 	and	t0,t0,t1
879017d0:	1500000e 	bnez	t0,8790180c <testmem0_start+0x134>
879017d4:	00000000 	nop
879017d8:	01202021 	move	a0,t1
879017dc:	3c028790 	lui	v0,0x8790
879017e0:	24423bb0 	addiu	v0,v0,15280
879017e4:	00501020 	add	v0,v0,s0
879017e8:	0040f809 	jalr	v0
879017ec:	00000000 	nop
879017f0:	3c048790 	lui	a0,0x8790
879017f4:	24846566 	addiu	a0,a0,25958
879017f8:	3c028790 	lui	v0,0x8790
879017fc:	24423b50 	addiu	v0,v0,15184
87901800:	00501021 	addu	v0,v0,s0
87901804:	0040f809 	jalr	v0
87901808:	00000000 	nop
8790180c:	3c088400 	lui	t0,0x8400
87901810:	01094023 	subu	t0,t0,t1
87901814:	1d00ffba 	bgtz	t0,87901700 <testmem0_start+0x28>
87901818:	00000000 	nop
8790181c:	3c048790 	lui	a0,0x8790
87901820:	24846568 	addiu	a0,a0,25960
87901824:	3c028790 	lui	v0,0x8790
87901828:	24423b50 	addiu	v0,v0,15184
8790182c:	00501021 	addu	v0,v0,s0
87901830:	0040f809 	jalr	v0
87901834:	00000000 	nop
87901838:	1000ffff 	b	87901838 <testmem0_start+0x160>
8790183c:	00000000 	nop
87901840:	03e07021 	move	t6,ra
87901844:	3c048790 	lui	a0,0x8790
87901848:	24846577 	addiu	a0,a0,25975
8790184c:	3c028790 	lui	v0,0x8790
87901850:	24423b50 	addiu	v0,v0,15184
87901854:	00501021 	addu	v0,v0,s0
87901858:	0040f809 	jalr	v0
8790185c:	00000000 	nop
87901860:	01202021 	move	a0,t1
87901864:	3c028790 	lui	v0,0x8790
87901868:	24423bb0 	addiu	v0,v0,15280
8790186c:	00501020 	add	v0,v0,s0
87901870:	0040f809 	jalr	v0
87901874:	00000000 	nop
87901878:	3c048790 	lui	a0,0x8790
8790187c:	24846590 	addiu	a0,a0,26000
87901880:	3c028790 	lui	v0,0x8790
87901884:	24423b50 	addiu	v0,v0,15184
87901888:	00501021 	addu	v0,v0,s0
8790188c:	0040f809 	jalr	v0
87901890:	00000000 	nop
87901894:	01402021 	move	a0,t2
87901898:	24050008 	li	a1,8
8790189c:	3c028790 	lui	v0,0x8790
879018a0:	244237c0 	addiu	v0,v0,14272
879018a4:	00501020 	add	v0,v0,s0
879018a8:	0040f809 	jalr	v0
879018ac:	00000000 	nop
879018b0:	3c048790 	lui	a0,0x8790
879018b4:	24846599 	addiu	a0,a0,26009
879018b8:	3c028790 	lui	v0,0x8790
879018bc:	24423b50 	addiu	v0,v0,15184
879018c0:	00501021 	addu	v0,v0,s0
879018c4:	0040f809 	jalr	v0
879018c8:	00000000 	nop
879018cc:	01602021 	move	a0,t3
879018d0:	24050008 	li	a1,8
879018d4:	3c028790 	lui	v0,0x8790
879018d8:	244237c0 	addiu	v0,v0,14272
879018dc:	00501020 	add	v0,v0,s0
879018e0:	0040f809 	jalr	v0
879018e4:	00000000 	nop
879018e8:	3c048790 	lui	a0,0x8790
879018ec:	248465a2 	addiu	a0,a0,26018
879018f0:	3c028790 	lui	v0,0x8790
879018f4:	24423b50 	addiu	v0,v0,15184
879018f8:	00501021 	addu	v0,v0,s0
879018fc:	0040f809 	jalr	v0
87901900:	00000000 	nop
87901904:	014b2026 	xor	a0,t2,t3
87901908:	01a46825 	or	t5,t5,a0
8790190c:	24050008 	li	a1,8
87901910:	3c028790 	lui	v0,0x8790
87901914:	244237c0 	addiu	v0,v0,14272
87901918:	00501020 	add	v0,v0,s0
8790191c:	0040f809 	jalr	v0
87901920:	00000000 	nop
87901924:	3c048790 	lui	a0,0x8790
87901928:	248465aa 	addiu	a0,a0,26026
8790192c:	3c028790 	lui	v0,0x8790
87901930:	24423b50 	addiu	v0,v0,15184
87901934:	00501021 	addu	v0,v0,s0
87901938:	0040f809 	jalr	v0
8790193c:	00000000 	nop
87901940:	01a02021 	move	a0,t5
87901944:	24050008 	li	a1,8
87901948:	3c028790 	lui	v0,0x8790
8790194c:	244237c0 	addiu	v0,v0,14272
87901950:	00501020 	add	v0,v0,s0
87901954:	0040f809 	jalr	v0
87901958:	00000000 	nop
8790195c:	01c00008 	jr	t6
87901960:	00000000 	nop
87901964:	00000000 	nop

87901968 <memtest5>:
testmem0_end():
87901968:	3c048790 	lui	a0,0x8790
8790196c:	248465b7 	addiu	a0,a0,26039
87901970:	00902021 	addu	a0,a0,s0
87901974:	3c028790 	lui	v0,0x8790
87901978:	24423b50 	addiu	v0,v0,15184
8790197c:	00501021 	addu	v0,v0,s0
87901980:	0040f809 	jalr	v0
87901984:	00000000 	nop
87901988:	3c088790 	lui	t0,0x8790
8790198c:	25081a58 	addiu	t0,t0,6744
87901990:	01104021 	addu	t0,t0,s0
87901994:	3c098790 	lui	t1,0x8790
87901998:	25291ed8 	addiu	t1,t1,7896
8790199c:	01304821 	addu	t1,t1,s0
879019a0:	3c0a8000 	lui	t2,0x8000
879019a4:	3c01a000 	lui	at,0xa000
879019a8:	01415025 	or	t2,t2,at
879019ac:	8d020000 	lw	v0,0(t0)
879019b0:	ad420000 	sw	v0,0(t2)
879019b4:	25080004 	addiu	t0,t0,4
879019b8:	254a0004 	addiu	t2,t2,4
879019bc:	0128082a 	slt	at,t1,t0
879019c0:	1020fffa 	beqz	at,879019ac <memtest5+0x44>
879019c4:	00000000 	nop
879019c8:	00007821 	move	t7,zero
879019cc:	3c0c8790 	lui	t4,0x8790
879019d0:	258c1a58 	addiu	t4,t4,6744
879019d4:	01906021 	addu	t4,t4,s0
879019d8:	3c0d8790 	lui	t5,0x8790
879019dc:	25ad1ed8 	addiu	t5,t5,7896
879019e0:	01b06821 	addu	t5,t5,s0
879019e4:	3c098000 	lui	t1,0x8000
879019e8:	3c01a000 	lui	at,0xa000
879019ec:	01214825 	or	t1,t1,at
879019f0:	8d8a0000 	lw	t2,0(t4)
879019f4:	8d2b0000 	lw	t3,0(t1)
879019f8:	116a0003 	beq	t3,t2,87901a08 <memtest5+0xa0>
879019fc:	00000000 	nop
87901a00:	041100e1 	bal	87901d88 <memtest5+0x420>
87901a04:	00000000 	nop
87901a08:	258c0004 	addiu	t4,t4,4
87901a0c:	25290004 	addiu	t1,t1,4
87901a10:	01ac082a 	slt	at,t5,t4
87901a14:	1020fff6 	beqz	at,879019f0 <memtest5+0x88>
87901a18:	00000000 	nop
87901a1c:	15e00004 	bnez	t7,87901a30 <memtest5+0xc8>
87901a20:	00000000 	nop
87901a24:	3c088000 	lui	t0,0x8000
87901a28:	01000008 	jr	t0
87901a2c:	00000000 	nop
87901a30:	3c048790 	lui	a0,0x8790
87901a34:	248465c4 	addiu	a0,a0,26052
87901a38:	00902021 	addu	a0,a0,s0
87901a3c:	3c028790 	lui	v0,0x8790
87901a40:	24423b50 	addiu	v0,v0,15184
87901a44:	00501021 	addu	v0,v0,s0
87901a48:	0040f809 	jalr	v0
87901a4c:	00000000 	nop
87901a50:	1000ffff 	b	87901a50 <memtest5+0xe8>
87901a54:	00000000 	nop
87901a58:	00000000 	nop
87901a5c:	3c048790 	lui	a0,0x8790
87901a60:	248465d7 	addiu	a0,a0,26071
87901a64:	00902021 	addu	a0,a0,s0
87901a68:	3c028790 	lui	v0,0x8790
87901a6c:	24423b50 	addiu	v0,v0,15184
87901a70:	00501021 	addu	v0,v0,s0
87901a74:	0040f809 	jalr	v0
87901a78:	00000000 	nop
87901a7c:	00007821 	move	t7,zero
87901a80:	3c088410 	lui	t0,0x8410
87901a84:	3c098010 	lui	t1,0x8010
87901a88:	240affff 	li	t2,-1
87901a8c:	3c0d8020 	lui	t5,0x8020
87901a90:	ad2a0000 	sw	t2,0(t1)
87901a94:	254affff 	addiu	t2,t2,-1
87901a98:	25290004 	addiu	t1,t1,4
87901a9c:	152d0019 	bne	t1,t5,87901b04 <memtest5+0x19c>
87901aa0:	00000000 	nop
87901aa4:	24040077 	li	a0,119
87901aa8:	3c028790 	lui	v0,0x8790
87901aac:	24423c00 	addiu	v0,v0,15360
87901ab0:	00501021 	addu	v0,v0,s0
87901ab4:	0040f809 	jalr	v0
87901ab8:	00000000 	nop
87901abc:	00000000 	nop
87901ac0:	01202021 	move	a0,t1
87901ac4:	3c028790 	lui	v0,0x8790
87901ac8:	24423bb0 	addiu	v0,v0,15280
87901acc:	00501021 	addu	v0,v0,s0
87901ad0:	0040f809 	jalr	v0
87901ad4:	00000000 	nop
87901ad8:	00000000 	nop
87901adc:	3c048790 	lui	a0,0x8790
87901ae0:	248465ec 	addiu	a0,a0,26092
87901ae4:	00902021 	addu	a0,a0,s0
87901ae8:	3c028790 	lui	v0,0x8790
87901aec:	24423b50 	addiu	v0,v0,15184
87901af0:	00501021 	addu	v0,v0,s0
87901af4:	0040f809 	jalr	v0
87901af8:	00000000 	nop
87901afc:	3c010010 	lui	at,0x10
87901b00:	01a16821 	addu	t5,t5,at
87901b04:	1528ffe2 	bne	t1,t0,87901a90 <memtest5+0x128>
87901b08:	00000000 	nop
87901b0c:	3c048790 	lui	a0,0x8790
87901b10:	248465ee 	addiu	a0,a0,26094
87901b14:	00902021 	addu	a0,a0,s0
87901b18:	3c028790 	lui	v0,0x8790
87901b1c:	24423b50 	addiu	v0,v0,15184
87901b20:	00501021 	addu	v0,v0,s0
87901b24:	0040f809 	jalr	v0
87901b28:	00000000 	nop
87901b2c:	3c088410 	lui	t0,0x8410
87901b30:	3c098010 	lui	t1,0x8010
87901b34:	3c0d8020 	lui	t5,0x8020
87901b38:	240affff 	li	t2,-1
87901b3c:	8d2b0000 	lw	t3,0(t1)
87901b40:	116a0003 	beq	t3,t2,87901b50 <memtest5+0x1e8>
87901b44:	00000000 	nop
87901b48:	0411008f 	bal	87901d88 <memtest5+0x420>
87901b4c:	00000000 	nop
87901b50:	254affff 	addiu	t2,t2,-1
87901b54:	25290004 	addiu	t1,t1,4
87901b58:	152d0019 	bne	t1,t5,87901bc0 <memtest5+0x258>
87901b5c:	00000000 	nop
87901b60:	24040072 	li	a0,114
87901b64:	3c028790 	lui	v0,0x8790
87901b68:	24423c00 	addiu	v0,v0,15360
87901b6c:	00501021 	addu	v0,v0,s0
87901b70:	0040f809 	jalr	v0
87901b74:	00000000 	nop
87901b78:	00000000 	nop
87901b7c:	01202021 	move	a0,t1
87901b80:	3c028790 	lui	v0,0x8790
87901b84:	24423bb0 	addiu	v0,v0,15280
87901b88:	00501021 	addu	v0,v0,s0
87901b8c:	0040f809 	jalr	v0
87901b90:	00000000 	nop
87901b94:	00000000 	nop
87901b98:	3c048790 	lui	a0,0x8790
87901b9c:	248465f1 	addiu	a0,a0,26097
87901ba0:	00902021 	addu	a0,a0,s0
87901ba4:	3c028790 	lui	v0,0x8790
87901ba8:	24423b50 	addiu	v0,v0,15184
87901bac:	00501021 	addu	v0,v0,s0
87901bb0:	0040f809 	jalr	v0
87901bb4:	00000000 	nop
87901bb8:	3c010010 	lui	at,0x10
87901bbc:	01a16821 	addu	t5,t5,at
87901bc0:	11280003 	beq	t1,t0,87901bd0 <memtest5+0x268>
87901bc4:	00000000 	nop
87901bc8:	1000ffdc 	b	87901b3c <memtest5+0x1d4>
87901bcc:	00000000 	nop
87901bd0:	3c048790 	lui	a0,0x8790
87901bd4:	248465f3 	addiu	a0,a0,26099
87901bd8:	00902021 	addu	a0,a0,s0
87901bdc:	3c028790 	lui	v0,0x8790
87901be0:	24423b50 	addiu	v0,v0,15184
87901be4:	00501021 	addu	v0,v0,s0
87901be8:	0040f809 	jalr	v0
87901bec:	00000000 	nop
87901bf0:	3c088410 	lui	t0,0x8410
87901bf4:	3c098010 	lui	t1,0x8010
87901bf8:	240a0000 	li	t2,0
87901bfc:	3c0d8020 	lui	t5,0x8020
87901c00:	ad2a0000 	sw	t2,0(t1)
87901c04:	254affff 	addiu	t2,t2,-1
87901c08:	25290004 	addiu	t1,t1,4
87901c0c:	152d0019 	bne	t1,t5,87901c74 <memtest5+0x30c>
87901c10:	00000000 	nop
87901c14:	24040077 	li	a0,119
87901c18:	3c028790 	lui	v0,0x8790
87901c1c:	24423c00 	addiu	v0,v0,15360
87901c20:	00501021 	addu	v0,v0,s0
87901c24:	0040f809 	jalr	v0
87901c28:	00000000 	nop
87901c2c:	00000000 	nop
87901c30:	01202021 	move	a0,t1
87901c34:	3c028790 	lui	v0,0x8790
87901c38:	24423bb0 	addiu	v0,v0,15280
87901c3c:	00501021 	addu	v0,v0,s0
87901c40:	0040f809 	jalr	v0
87901c44:	00000000 	nop
87901c48:	00000000 	nop
87901c4c:	3c048790 	lui	a0,0x8790
87901c50:	248465f6 	addiu	a0,a0,26102
87901c54:	00902021 	addu	a0,a0,s0
87901c58:	3c028790 	lui	v0,0x8790
87901c5c:	24423b50 	addiu	v0,v0,15184
87901c60:	00501021 	addu	v0,v0,s0
87901c64:	0040f809 	jalr	v0
87901c68:	00000000 	nop
87901c6c:	3c010010 	lui	at,0x10
87901c70:	01a16821 	addu	t5,t5,at
87901c74:	1528ffe2 	bne	t1,t0,87901c00 <memtest5+0x298>
87901c78:	00000000 	nop
87901c7c:	3c048790 	lui	a0,0x8790
87901c80:	248465f8 	addiu	a0,a0,26104
87901c84:	00902021 	addu	a0,a0,s0
87901c88:	3c028790 	lui	v0,0x8790
87901c8c:	24423b50 	addiu	v0,v0,15184
87901c90:	00501021 	addu	v0,v0,s0
87901c94:	0040f809 	jalr	v0
87901c98:	00000000 	nop
87901c9c:	3c088410 	lui	t0,0x8410
87901ca0:	3c098010 	lui	t1,0x8010
87901ca4:	3c0d8020 	lui	t5,0x8020
87901ca8:	240a0000 	li	t2,0
87901cac:	8d2b0000 	lw	t3,0(t1)
87901cb0:	116a0003 	beq	t3,t2,87901cc0 <memtest5+0x358>
87901cb4:	00000000 	nop
87901cb8:	04110033 	bal	87901d88 <memtest5+0x420>
87901cbc:	00000000 	nop
87901cc0:	254affff 	addiu	t2,t2,-1
87901cc4:	25290004 	addiu	t1,t1,4
87901cc8:	152d0019 	bne	t1,t5,87901d30 <memtest5+0x3c8>
87901ccc:	00000000 	nop
87901cd0:	24040072 	li	a0,114
87901cd4:	3c028790 	lui	v0,0x8790
87901cd8:	24423c00 	addiu	v0,v0,15360
87901cdc:	00501021 	addu	v0,v0,s0
87901ce0:	0040f809 	jalr	v0
87901ce4:	00000000 	nop
87901ce8:	00000000 	nop
87901cec:	01202021 	move	a0,t1
87901cf0:	3c028790 	lui	v0,0x8790
87901cf4:	24423bb0 	addiu	v0,v0,15280
87901cf8:	00501021 	addu	v0,v0,s0
87901cfc:	0040f809 	jalr	v0
87901d00:	00000000 	nop
87901d04:	00000000 	nop
87901d08:	3c048790 	lui	a0,0x8790
87901d0c:	248465fb 	addiu	a0,a0,26107
87901d10:	00902021 	addu	a0,a0,s0
87901d14:	3c028790 	lui	v0,0x8790
87901d18:	24423b50 	addiu	v0,v0,15184
87901d1c:	00501021 	addu	v0,v0,s0
87901d20:	0040f809 	jalr	v0
87901d24:	00000000 	nop
87901d28:	3c010010 	lui	at,0x10
87901d2c:	01a16821 	addu	t5,t5,at
87901d30:	11280003 	beq	t1,t0,87901d40 <memtest5+0x3d8>
87901d34:	00000000 	nop
87901d38:	1000ffdc 	b	87901cac <memtest5+0x344>
87901d3c:	00000000 	nop
87901d40:	3c048790 	lui	a0,0x8790
87901d44:	248465fd 	addiu	a0,a0,26109
87901d48:	00902021 	addu	a0,a0,s0
87901d4c:	3c028790 	lui	v0,0x8790
87901d50:	24423b50 	addiu	v0,v0,15184
87901d54:	00501021 	addu	v0,v0,s0
87901d58:	0040f809 	jalr	v0
87901d5c:	00000000 	nop
87901d60:	3c048790 	lui	a0,0x8790
87901d64:	24846600 	addiu	a0,a0,26112
87901d68:	00902021 	addu	a0,a0,s0
87901d6c:	3c028790 	lui	v0,0x8790
87901d70:	24423b50 	addiu	v0,v0,15184
87901d74:	00501021 	addu	v0,v0,s0
87901d78:	0040f809 	jalr	v0
87901d7c:	00000000 	nop
87901d80:	1000ffff 	b	87901d80 <memtest5+0x418>
87901d84:	00000000 	nop
87901d88:	03e07021 	move	t6,ra
87901d8c:	3c048790 	lui	a0,0x8790
87901d90:	2484660f 	addiu	a0,a0,26127
87901d94:	00902021 	addu	a0,a0,s0
87901d98:	3c028790 	lui	v0,0x8790
87901d9c:	24423b50 	addiu	v0,v0,15184
87901da0:	00501021 	addu	v0,v0,s0
87901da4:	0040f809 	jalr	v0
87901da8:	00000000 	nop
87901dac:	01202021 	move	a0,t1
87901db0:	3c028790 	lui	v0,0x8790
87901db4:	24423bb0 	addiu	v0,v0,15280
87901db8:	00501021 	addu	v0,v0,s0
87901dbc:	0040f809 	jalr	v0
87901dc0:	00000000 	nop
87901dc4:	00000000 	nop
87901dc8:	3c048790 	lui	a0,0x8790
87901dcc:	24846628 	addiu	a0,a0,26152
87901dd0:	00902021 	addu	a0,a0,s0
87901dd4:	3c028790 	lui	v0,0x8790
87901dd8:	24423b50 	addiu	v0,v0,15184
87901ddc:	00501021 	addu	v0,v0,s0
87901de0:	0040f809 	jalr	v0
87901de4:	00000000 	nop
87901de8:	01402021 	move	a0,t2
87901dec:	24050008 	li	a1,8
87901df0:	3c028790 	lui	v0,0x8790
87901df4:	244237c0 	addiu	v0,v0,14272
87901df8:	00501021 	addu	v0,v0,s0
87901dfc:	0040f809 	jalr	v0
87901e00:	00000000 	nop
87901e04:	00000000 	nop
87901e08:	3c048790 	lui	a0,0x8790
87901e0c:	24846631 	addiu	a0,a0,26161
87901e10:	00902021 	addu	a0,a0,s0
87901e14:	3c028790 	lui	v0,0x8790
87901e18:	24423b50 	addiu	v0,v0,15184
87901e1c:	00501021 	addu	v0,v0,s0
87901e20:	0040f809 	jalr	v0
87901e24:	00000000 	nop
87901e28:	01602021 	move	a0,t3
87901e2c:	24050008 	li	a1,8
87901e30:	3c028790 	lui	v0,0x8790
87901e34:	244237c0 	addiu	v0,v0,14272
87901e38:	00501021 	addu	v0,v0,s0
87901e3c:	0040f809 	jalr	v0
87901e40:	00000000 	nop
87901e44:	00000000 	nop
87901e48:	3c048790 	lui	a0,0x8790
87901e4c:	2484663a 	addiu	a0,a0,26170
87901e50:	00902021 	addu	a0,a0,s0
87901e54:	3c028790 	lui	v0,0x8790
87901e58:	24423b50 	addiu	v0,v0,15184
87901e5c:	00501021 	addu	v0,v0,s0
87901e60:	0040f809 	jalr	v0
87901e64:	00000000 	nop
87901e68:	014b2026 	xor	a0,t2,t3
87901e6c:	01e47825 	or	t7,t7,a0
87901e70:	24050008 	li	a1,8
87901e74:	3c028790 	lui	v0,0x8790
87901e78:	244237c0 	addiu	v0,v0,14272
87901e7c:	00501021 	addu	v0,v0,s0
87901e80:	0040f809 	jalr	v0
87901e84:	00000000 	nop
87901e88:	00000000 	nop
87901e8c:	3c048790 	lui	a0,0x8790
87901e90:	24846642 	addiu	a0,a0,26178
87901e94:	00902021 	addu	a0,a0,s0
87901e98:	3c028790 	lui	v0,0x8790
87901e9c:	24423b50 	addiu	v0,v0,15184
87901ea0:	00501021 	addu	v0,v0,s0
87901ea4:	0040f809 	jalr	v0
87901ea8:	00000000 	nop
87901eac:	01e02021 	move	a0,t7
87901eb0:	24050008 	li	a1,8
87901eb4:	3c028790 	lui	v0,0x8790
87901eb8:	244237c0 	addiu	v0,v0,14272
87901ebc:	00501021 	addu	v0,v0,s0
87901ec0:	0040f809 	jalr	v0
87901ec4:	00000000 	nop
87901ec8:	00000000 	nop
87901ecc:	01c00008 	jr	t6
87901ed0:	00000000 	nop
87901ed4:	00000000 	nop

87901ed8 <memtest6>:
memtest6():
87901ed8:	240e000a 	li	t6,10
87901edc:	3c0a8796 	lui	t2,0x8796
87901ee0:	254ac010 	addiu	t2,t2,-16368
87901ee4:	3c088790 	lui	t0,0x8790
87901ee8:	25080000 	addiu	t0,t0,0
87901eec:	2404002e 	li	a0,46
87901ef0:	04110743 	bal	87903c00 <tgt_putchar>
87901ef4:	00000000 	nop
87901ef8:	3c09bfc0 	lui	t1,0xbfc0
87901efc:	3c01a000 	lui	at,0xa000
87901f00:	01014025 	or	t0,t0,at
87901f04:	3c01a000 	lui	at,0xa000
87901f08:	01415025 	or	t2,t2,at
87901f0c:	8d2b0000 	lw	t3,0(t1)
87901f10:	00000000 	nop
87901f14:	ad0b0000 	sw	t3,0(t0)
87901f18:	25080004 	addiu	t0,t0,4
87901f1c:	25290004 	addiu	t1,t1,4
87901f20:	1548fffa 	bne	t2,t0,87901f0c <memtest6+0x34>
87901f24:	00000000 	nop
87901f28:	3c028790 	lui	v0,0x8790
87901f2c:	24420000 	addiu	v0,v0,0
87901f30:	3c038796 	lui	v1,0x8796
87901f34:	2463c010 	addiu	v1,v1,-16368
87901f38:	01425023 	subu	t2,t2,v0
87901f3c:	01435021 	addu	t2,t2,v1
87901f40:	25ceffff 	addiu	t6,t6,-1
87901f44:	15c0ffe9 	bnez	t6,87901eec <memtest6+0x14>
87901f48:	00000000 	nop
87901f4c:	3c048790 	lui	a0,0x8790
87901f50:	2484664f 	addiu	a0,a0,26191
87901f54:	041106fe 	bal	87903b50 <stringserial>
87901f58:	00000000 	nop
87901f5c:	240e000a 	li	t6,10
87901f60:	3c088790 	lui	t0,0x8790
87901f64:	25080000 	addiu	t0,t0,0
87901f68:	3c0a8796 	lui	t2,0x8796
87901f6c:	254ac010 	addiu	t2,t2,-16368
87901f70:	2404002b 	li	a0,43
87901f74:	04110722 	bal	87903c00 <tgt_putchar>
87901f78:	00000000 	nop
87901f7c:	3c09bfc0 	lui	t1,0xbfc0
87901f80:	3c01a000 	lui	at,0xa000
87901f84:	01014025 	or	t0,t0,at
87901f88:	3c01a000 	lui	at,0xa000
87901f8c:	01415025 	or	t2,t2,at
87901f90:	8d2c0000 	lw	t4,0(t1)
87901f94:	00000000 	nop
87901f98:	8d0d0000 	lw	t5,0(t0)
87901f9c:	25080004 	addiu	t0,t0,4
87901fa0:	25290004 	addiu	t1,t1,4
87901fa4:	118d0026 	beq	t4,t5,87902040 <memtest6+0x168>
87901fa8:	00000000 	nop
87901fac:	01002021 	move	a0,t0
87901fb0:	2484fffc 	addiu	a0,a0,-4
87901fb4:	041106fe 	bal	87903bb0 <hexserial>
87901fb8:	00000000 	nop
87901fbc:	3c048790 	lui	a0,0x8790
87901fc0:	24846652 	addiu	a0,a0,26194
87901fc4:	041106e2 	bal	87903b50 <stringserial>
87901fc8:	00000000 	nop
87901fcc:	01802021 	move	a0,t4
87901fd0:	041106f7 	bal	87903bb0 <hexserial>
87901fd4:	00000000 	nop
87901fd8:	3c048790 	lui	a0,0x8790
87901fdc:	24846654 	addiu	a0,a0,26196
87901fe0:	041106db 	bal	87903b50 <stringserial>
87901fe4:	00000000 	nop
87901fe8:	01a02021 	move	a0,t5
87901fec:	041106f0 	bal	87903bb0 <hexserial>
87901ff0:	00000000 	nop
87901ff4:	3c048790 	lui	a0,0x8790
87901ff8:	24846656 	addiu	a0,a0,26198
87901ffc:	041106d4 	bal	87903b50 <stringserial>
87902000:	00000000 	nop
87902004:	018d2026 	xor	a0,t4,t5
87902008:	01e47825 	or	t7,t7,a0
8790200c:	041106e8 	bal	87903bb0 <hexserial>
87902010:	00000000 	nop
87902014:	3c048790 	lui	a0,0x8790
87902018:	24846658 	addiu	a0,a0,26200
8790201c:	041106cc 	bal	87903b50 <stringserial>
87902020:	00000000 	nop
87902024:	01e02021 	move	a0,t7
87902028:	041106e1 	bal	87903bb0 <hexserial>
8790202c:	00000000 	nop
87902030:	3c048790 	lui	a0,0x8790
87902034:	2484665a 	addiu	a0,a0,26202
87902038:	041106c5 	bal	87903b50 <stringserial>
8790203c:	00000000 	nop
87902040:	1548ffd3 	bne	t2,t0,87901f90 <memtest6+0xb8>
87902044:	00000000 	nop
87902048:	3c028790 	lui	v0,0x8790
8790204c:	24420000 	addiu	v0,v0,0
87902050:	3c038796 	lui	v1,0x8796
87902054:	2463c010 	addiu	v1,v1,-16368
87902058:	01425023 	subu	t2,t2,v0
8790205c:	01435021 	addu	t2,t2,v1
87902060:	25ceffff 	addiu	t6,t6,-1
87902064:	15c0ffc2 	bnez	t6,87901f70 <memtest6+0x98>
87902068:	00000000 	nop

8790206c <memtest7>:
memtest7():
8790206c:	00000000 	nop
87902070:	3c048790 	lui	a0,0x8790
87902074:	2484665d 	addiu	a0,a0,26205
87902078:	041106b5 	bal	87903b50 <stringserial>
8790207c:	00000000 	nop
87902080:	00006821 	move	t5,zero
87902084:	240affff 	li	t2,-1
87902088:	3c09a000 	lui	t1,0xa000
8790208c:	3c010002 	lui	at,0x2
87902090:	01415023 	subu	t2,t2,at
87902094:	3c010010 	lui	at,0x10
87902098:	01214821 	addu	t1,t1,at
8790209c:	3c0c0002 	lui	t4,0x2
879020a0:	254a0001 	addiu	t2,t2,1
879020a4:	2529fff8 	addiu	t1,t1,-8
879020a8:	ad2a0000 	sw	t2,0(t1)
879020ac:	ad2b0004 	sw	t3,4(t1)
879020b0:	258cffff 	addiu	t4,t4,-1
879020b4:	1580fffa 	bnez	t4,879020a0 <memtest7+0x34>
879020b8:	00000000 	nop
879020bc:	3c0c0002 	lui	t4,0x2
879020c0:	8d2b0000 	lw	t3,0(t1)
879020c4:	8d2c0004 	lw	t4,4(t1)
879020c8:	116a0003 	beq	t3,t2,879020d8 <memtest7+0x6c>
879020cc:	00000000 	nop
879020d0:	04110039 	bal	879021b8 <memtest7+0x14c>
879020d4:	00000000 	nop
879020d8:	254affff 	addiu	t2,t2,-1
879020dc:	25290008 	addiu	t1,t1,8
879020e0:	258cffff 	addiu	t4,t4,-1
879020e4:	1580fff6 	bnez	t4,879020c0 <memtest7+0x54>
879020e8:	00000000 	nop
879020ec:	3c010002 	lui	at,0x2
879020f0:	01415021 	addu	t2,t2,at
879020f4:	3c010010 	lui	at,0x10
879020f8:	01214823 	subu	t1,t1,at
879020fc:	01405027 	nor	t2,t2,zero
87902100:	3c010002 	lui	at,0x2
87902104:	01415023 	subu	t2,t2,at
87902108:	3c010010 	lui	at,0x10
8790210c:	01214821 	addu	t1,t1,at
87902110:	3c0c0002 	lui	t4,0x2
87902114:	254a0001 	addiu	t2,t2,1
87902118:	2529fff8 	addiu	t1,t1,-8
8790211c:	ad2a0000 	sw	t2,0(t1)
87902120:	ad2b0004 	sw	t3,4(t1)
87902124:	258cffff 	addiu	t4,t4,-1
87902128:	1580fffa 	bnez	t4,87902114 <memtest7+0xa8>
8790212c:	00000000 	nop
87902130:	3c0c0002 	lui	t4,0x2
87902134:	8d2b0000 	lw	t3,0(t1)
87902138:	8d2c0004 	lw	t4,4(t1)
8790213c:	116a0003 	beq	t3,t2,8790214c <memtest7+0xe0>
87902140:	00000000 	nop
87902144:	0411001c 	bal	879021b8 <memtest7+0x14c>
87902148:	00000000 	nop
8790214c:	254affff 	addiu	t2,t2,-1
87902150:	25290008 	addiu	t1,t1,8
87902154:	258cffff 	addiu	t4,t4,-1
87902158:	1580fff6 	bnez	t4,87902134 <memtest7+0xc8>
8790215c:	00000000 	nop
87902160:	3c08000f 	lui	t0,0xf
87902164:	3508ffff 	ori	t0,t0,0xffff
87902168:	01094024 	and	t0,t0,t1
8790216c:	15000008 	bnez	t0,87902190 <memtest7+0x124>
87902170:	00000000 	nop
87902174:	01202021 	move	a0,t1
87902178:	0411068d 	bal	87903bb0 <hexserial>
8790217c:	00000000 	nop
87902180:	3c048790 	lui	a0,0x8790
87902184:	24846672 	addiu	a0,a0,26226
87902188:	04110671 	bal	87903b50 <stringserial>
8790218c:	00000000 	nop
87902190:	3c08b000 	lui	t0,0xb000
87902194:	01094023 	subu	t0,t0,t1
87902198:	1d00ffbc 	bgtz	t0,8790208c <memtest7+0x20>
8790219c:	00000000 	nop
879021a0:	3c048790 	lui	a0,0x8790
879021a4:	24846674 	addiu	a0,a0,26228
879021a8:	04110669 	bal	87903b50 <stringserial>
879021ac:	00000000 	nop
879021b0:	1000ffff 	b	879021b0 <memtest7+0x144>
879021b4:	00000000 	nop
879021b8:	03e07021 	move	t6,ra
879021bc:	3c048790 	lui	a0,0x8790
879021c0:	24846683 	addiu	a0,a0,26243
879021c4:	04110662 	bal	87903b50 <stringserial>
879021c8:	00000000 	nop
879021cc:	01202021 	move	a0,t1
879021d0:	04110677 	bal	87903bb0 <hexserial>
879021d4:	00000000 	nop
879021d8:	3c048790 	lui	a0,0x8790
879021dc:	2484669c 	addiu	a0,a0,26268
879021e0:	0411065b 	bal	87903b50 <stringserial>
879021e4:	00000000 	nop
879021e8:	01402021 	move	a0,t2
879021ec:	24050010 	li	a1,16
879021f0:	04110573 	bal	879037c0 <Hexserial>
879021f4:	00000000 	nop
879021f8:	3c048790 	lui	a0,0x8790
879021fc:	248466a5 	addiu	a0,a0,26277
87902200:	04110653 	bal	87903b50 <stringserial>
87902204:	00000000 	nop
87902208:	01602021 	move	a0,t3
8790220c:	24050010 	li	a1,16
87902210:	0411056b 	bal	879037c0 <Hexserial>
87902214:	00000000 	nop
87902218:	3c048790 	lui	a0,0x8790
8790221c:	248466ae 	addiu	a0,a0,26286
87902220:	0411064b 	bal	87903b50 <stringserial>
87902224:	00000000 	nop
87902228:	014b2026 	xor	a0,t2,t3
8790222c:	01a46825 	or	t5,t5,a0
87902230:	24050010 	li	a1,16
87902234:	04110562 	bal	879037c0 <Hexserial>
87902238:	00000000 	nop
8790223c:	3c048790 	lui	a0,0x8790
87902240:	248466b6 	addiu	a0,a0,26294
87902244:	04110642 	bal	87903b50 <stringserial>
87902248:	00000000 	nop
8790224c:	01a02021 	move	a0,t5
87902250:	24050010 	li	a1,16
87902254:	0411055a 	bal	879037c0 <Hexserial>
87902258:	00000000 	nop
8790225c:	01c00008 	jr	t6
87902260:	00000000 	nop

87902264 <memtest8>:
memtest8():
87902264:	3c088790 	lui	t0,0x8790
87902268:	25082338 	addiu	t0,t0,9016
8790226c:	01104021 	addu	t0,t0,s0
87902270:	3c098790 	lui	t1,0x8790
87902274:	25292578 	addiu	t1,t1,9592
87902278:	01304821 	addu	t1,t1,s0
8790227c:	3c0a8000 	lui	t2,0x8000
87902280:	3c01a000 	lui	at,0xa000
87902284:	01415025 	or	t2,t2,at
87902288:	8d020000 	lw	v0,0(t0)
8790228c:	8d030004 	lw	v1,4(t0)
87902290:	ad420000 	sw	v0,0(t2)
87902294:	ad430004 	sw	v1,4(t2)
87902298:	25080008 	addiu	t0,t0,8
8790229c:	254a0008 	addiu	t2,t2,8
879022a0:	0128082a 	slt	at,t1,t0
879022a4:	1020fff8 	beqz	at,87902288 <memtest8+0x24>
879022a8:	00000000 	nop
879022ac:	00006821 	move	t5,zero
879022b0:	3c0f8790 	lui	t7,0x8790
879022b4:	25ef2338 	addiu	t7,t7,9016
879022b8:	01f07821 	addu	t7,t7,s0
879022bc:	3c0c8790 	lui	t4,0x8790
879022c0:	258c2578 	addiu	t4,t4,9592
879022c4:	01906021 	addu	t4,t4,s0
879022c8:	3c098000 	lui	t1,0x8000
879022cc:	3c01a000 	lui	at,0xa000
879022d0:	01214825 	or	t1,t1,at
879022d4:	8dea0000 	lw	t2,0(t7)
879022d8:	8deb0004 	lw	t3,4(t7)
879022dc:	8d2b0000 	lw	t3,0(t1)
879022e0:	8d2c0004 	lw	t4,4(t1)
879022e4:	116a0003 	beq	t3,t2,879022f4 <memtest8+0x90>
879022e8:	00000000 	nop
879022ec:	04110067 	bal	8790248c <testmem1_start+0x154>
879022f0:	00000000 	nop
879022f4:	25ef0008 	addiu	t7,t7,8
879022f8:	25290008 	addiu	t1,t1,8
879022fc:	018f082a 	slt	at,t4,t7
87902300:	1020fff4 	beqz	at,879022d4 <memtest8+0x70>
87902304:	00000000 	nop
87902308:	15a00004 	bnez	t5,8790231c <memtest8+0xb8>
8790230c:	00000000 	nop
87902310:	3c088000 	lui	t0,0x8000
87902314:	01000008 	jr	t0
87902318:	00000000 	nop
8790231c:	3c048790 	lui	a0,0x8790
87902320:	248466c3 	addiu	a0,a0,26307
87902324:	0411060a 	bal	87903b50 <stringserial>
87902328:	00000000 	nop
8790232c:	1000ffff 	b	8790232c <memtest8+0xc8>
87902330:	00000000 	nop
87902334:	00000000 	nop

87902338 <testmem1_start>:
testmem1_start():
87902338:	3c048790 	lui	a0,0x8790
8790233c:	248466d6 	addiu	a0,a0,26326
87902340:	04110603 	bal	87903b50 <stringserial>
87902344:	00000000 	nop
87902348:	00006821 	move	t5,zero
8790234c:	240affff 	li	t2,-1
87902350:	3c098010 	lui	t1,0x8010
87902354:	3c010010 	lui	at,0x10
87902358:	01214821 	addu	t1,t1,at
8790235c:	3c010002 	lui	at,0x2
87902360:	01415023 	subu	t2,t2,at
87902364:	3c0c0002 	lui	t4,0x2
87902368:	254a0001 	addiu	t2,t2,1
8790236c:	2529fff8 	addiu	t1,t1,-8
87902370:	ad2a0000 	sw	t2,0(t1)
87902374:	ad2b0004 	sw	t3,4(t1)
87902378:	258cffff 	addiu	t4,t4,-1
8790237c:	1580fffa 	bnez	t4,87902368 <testmem1_start+0x30>
87902380:	00000000 	nop
87902384:	3c0c0002 	lui	t4,0x2
87902388:	8d2b0000 	lw	t3,0(t1)
8790238c:	8d2c0004 	lw	t4,4(t1)
87902390:	116a0003 	beq	t3,t2,879023a0 <testmem1_start+0x68>
87902394:	00000000 	nop
87902398:	0411003c 	bal	8790248c <testmem1_start+0x154>
8790239c:	00000000 	nop
879023a0:	254affff 	addiu	t2,t2,-1
879023a4:	25290008 	addiu	t1,t1,8
879023a8:	258cffff 	addiu	t4,t4,-1
879023ac:	1580fff6 	bnez	t4,87902388 <testmem1_start+0x50>
879023b0:	00000000 	nop
879023b4:	3c010002 	lui	at,0x2
879023b8:	01415021 	addu	t2,t2,at
879023bc:	3c010010 	lui	at,0x10
879023c0:	01214823 	subu	t1,t1,at
879023c4:	01405027 	nor	t2,t2,zero
879023c8:	3c010010 	lui	at,0x10
879023cc:	01214821 	addu	t1,t1,at
879023d0:	3c010002 	lui	at,0x2
879023d4:	01415023 	subu	t2,t2,at
879023d8:	3c0c0002 	lui	t4,0x2
879023dc:	254a0001 	addiu	t2,t2,1
879023e0:	2529fff8 	addiu	t1,t1,-8
879023e4:	ad2a0000 	sw	t2,0(t1)
879023e8:	ad2b0004 	sw	t3,4(t1)
879023ec:	258cffff 	addiu	t4,t4,-1
879023f0:	1580fffa 	bnez	t4,879023dc <testmem1_start+0xa4>
879023f4:	00000000 	nop
879023f8:	3c0c0002 	lui	t4,0x2
879023fc:	8d2b0000 	lw	t3,0(t1)
87902400:	8d2c0004 	lw	t4,4(t1)
87902404:	116a0003 	beq	t3,t2,87902414 <testmem1_start+0xdc>
87902408:	00000000 	nop
8790240c:	0411001f 	bal	8790248c <testmem1_start+0x154>
87902410:	00000000 	nop
87902414:	254affff 	addiu	t2,t2,-1
87902418:	25290008 	addiu	t1,t1,8
8790241c:	258cffff 	addiu	t4,t4,-1
87902420:	1580fff6 	bnez	t4,879023fc <testmem1_start+0xc4>
87902424:	00000000 	nop
87902428:	3c08000f 	lui	t0,0xf
8790242c:	3508ffff 	ori	t0,t0,0xffff
87902430:	01094024 	and	t0,t0,t1
87902434:	1500000b 	bnez	t0,87902464 <testmem1_start+0x12c>
87902438:	00000000 	nop
8790243c:	01202021 	move	a0,t1
87902440:	3c028790 	lui	v0,0x8790
87902444:	24423bb0 	addiu	v0,v0,15280
87902448:	00501020 	add	v0,v0,s0
8790244c:	0040f809 	jalr	v0
87902450:	00000000 	nop
87902454:	3c048790 	lui	a0,0x8790
87902458:	248466eb 	addiu	a0,a0,26347
8790245c:	041105bc 	bal	87903b50 <stringserial>
87902460:	00000000 	nop
87902464:	3c089000 	lui	t0,0x9000
87902468:	01094023 	subu	t0,t0,t1
8790246c:	1d00ffb9 	bgtz	t0,87902354 <testmem1_start+0x1c>
87902470:	00000000 	nop
87902474:	3c048790 	lui	a0,0x8790
87902478:	248466ed 	addiu	a0,a0,26349
8790247c:	041105b4 	bal	87903b50 <stringserial>
87902480:	00000000 	nop
87902484:	1000ffff 	b	87902484 <testmem1_start+0x14c>
87902488:	00000000 	nop
8790248c:	03e07021 	move	t6,ra
87902490:	3c048790 	lui	a0,0x8790
87902494:	248466fc 	addiu	a0,a0,26364
87902498:	041105ad 	bal	87903b50 <stringserial>
8790249c:	00000000 	nop
879024a0:	01202021 	move	a0,t1
879024a4:	3c028790 	lui	v0,0x8790
879024a8:	24423bb0 	addiu	v0,v0,15280
879024ac:	00501020 	add	v0,v0,s0
879024b0:	0040f809 	jalr	v0
879024b4:	00000000 	nop
879024b8:	3c048790 	lui	a0,0x8790
879024bc:	24846715 	addiu	a0,a0,26389
879024c0:	041105a3 	bal	87903b50 <stringserial>
879024c4:	00000000 	nop
879024c8:	01402021 	move	a0,t2
879024cc:	24050010 	li	a1,16
879024d0:	3c028790 	lui	v0,0x8790
879024d4:	244237c0 	addiu	v0,v0,14272
879024d8:	00501020 	add	v0,v0,s0
879024dc:	0040f809 	jalr	v0
879024e0:	00000000 	nop
879024e4:	3c048790 	lui	a0,0x8790
879024e8:	2484671e 	addiu	a0,a0,26398
879024ec:	04110598 	bal	87903b50 <stringserial>
879024f0:	00000000 	nop
879024f4:	01602021 	move	a0,t3
879024f8:	24050010 	li	a1,16
879024fc:	3c028790 	lui	v0,0x8790
87902500:	244237c0 	addiu	v0,v0,14272
87902504:	00501020 	add	v0,v0,s0
87902508:	0040f809 	jalr	v0
8790250c:	00000000 	nop
87902510:	3c048790 	lui	a0,0x8790
87902514:	24846727 	addiu	a0,a0,26407
87902518:	0411058d 	bal	87903b50 <stringserial>
8790251c:	00000000 	nop
87902520:	014b2026 	xor	a0,t2,t3
87902524:	01a46825 	or	t5,t5,a0
87902528:	24050010 	li	a1,16
8790252c:	3c028790 	lui	v0,0x8790
87902530:	244237c0 	addiu	v0,v0,14272
87902534:	00501020 	add	v0,v0,s0
87902538:	0040f809 	jalr	v0
8790253c:	00000000 	nop
87902540:	3c048790 	lui	a0,0x8790
87902544:	2484672f 	addiu	a0,a0,26415
87902548:	04110581 	bal	87903b50 <stringserial>
8790254c:	00000000 	nop
87902550:	01a02021 	move	a0,t5
87902554:	24050010 	li	a1,16
87902558:	3c028790 	lui	v0,0x8790
8790255c:	244237c0 	addiu	v0,v0,14272
87902560:	00501020 	add	v0,v0,s0
87902564:	0040f809 	jalr	v0
87902568:	00000000 	nop
8790256c:	01c00008 	jr	t6
87902570:	00000000 	nop
87902574:	00000000 	nop

87902578 <sumrom>:
testmem1_end():
87902578:	00000000 	nop
8790257c:	3c048790 	lui	a0,0x8790
87902580:	2484673c 	addiu	a0,a0,26428
87902584:	04110572 	bal	87903b50 <stringserial>
87902588:	00000000 	nop
8790258c:	240f000a 	li	t7,10
87902590:	3c08bfc8 	lui	t0,0xbfc8
87902594:	3c09bfc0 	lui	t1,0xbfc0
87902598:	240a0000 	li	t2,0
8790259c:	8d2b0000 	lw	t3,0(t1)
879025a0:	014b5021 	addu	t2,t2,t3
879025a4:	25290004 	addiu	t1,t1,4
879025a8:	1528fffc 	bne	t1,t0,8790259c <sumrom+0x24>
879025ac:	00000000 	nop
879025b0:	3c048790 	lui	a0,0x8790
879025b4:	24846751 	addiu	a0,a0,26449
879025b8:	04110565 	bal	87903b50 <stringserial>
879025bc:	00000000 	nop
879025c0:	01402021 	move	a0,t2
879025c4:	0411057a 	bal	87903bb0 <hexserial>
879025c8:	00000000 	nop
879025cc:	1000ffff 	b	879025cc <sumrom+0x54>
879025d0:	00000000 	nop

879025d4 <testddrwrite0>:
testddrwrite0():
879025d4:	3c0fa000 	lui	t7,0xa000
879025d8:	3c0ea100 	lui	t6,0xa100
879025dc:	adef0000 	sw	t7,0(t7)
879025e0:	adf00004 	sw	s0,4(t7)
879025e4:	25ef0008 	addiu	t7,t7,8
879025e8:	15cffffc 	bne	t6,t7,879025dc <testddrwrite0+0x8>
879025ec:	00000000 	nop
879025f0:	10000024 	b	87902684 <testddrread>
879025f4:	00000000 	nop

879025f8 <testddrwrite>:
testddrwrite():
879025f8:	3c0fa000 	lui	t7,0xa000
879025fc:	3c0ea010 	lui	t6,0xa010
87902600:	24180001 	li	t8,1
87902604:	01e02021 	move	a0,t7
87902608:	04110569 	bal	87903bb0 <hexserial>
8790260c:	00000000 	nop
87902610:	3c048790 	lui	a0,0x8790
87902614:	24846758 	addiu	a0,a0,26456
87902618:	0411054d 	bal	87903b50 <stringserial>
8790261c:	00000000 	nop
87902620:	a1f80000 	sb	t8,0(t7)
87902624:	25ef0001 	addiu	t7,t7,1
87902628:	27180001 	addiu	t8,t8,1
8790262c:	15cffff5 	bne	t6,t7,87902604 <testddrwrite+0xc>
87902630:	00000000 	nop
87902634:	10000013 	b	87902684 <testddrread>
87902638:	00000000 	nop

8790263c <testddrwrite1>:
testddrwrite1():
8790263c:	3c0fa000 	lui	t7,0xa000
87902640:	3c0ea000 	lui	t6,0xa000
87902644:	35ce0100 	ori	t6,t6,0x100
87902648:	24180001 	li	t8,1
8790264c:	01e02021 	move	a0,t7
87902650:	04110557 	bal	87903bb0 <hexserial>
87902654:	00000000 	nop
87902658:	3c048790 	lui	a0,0x8790
8790265c:	2484675b 	addiu	a0,a0,26459
87902660:	0411053b 	bal	87903b50 <stringserial>
87902664:	00000000 	nop
87902668:	a1f80000 	sb	t8,0(t7)
8790266c:	25ef0001 	addiu	t7,t7,1
87902670:	27180001 	addiu	t8,t8,1
87902674:	15cffff5 	bne	t6,t7,8790264c <testddrwrite1+0x10>
87902678:	00000000 	nop
8790267c:	10000001 	b	87902684 <testddrread>
87902680:	00000000 	nop

87902684 <testddrread>:
testddrread():
87902684:	3c048790 	lui	a0,0x8790
87902688:	2484675e 	addiu	a0,a0,26462
8790268c:	04110530 	bal	87903b50 <stringserial>
87902690:	00000000 	nop
87902694:	00000000 	nop
87902698:	0411056d 	bal	87903c50 <tgt_getchar>
8790269c:	00000000 	nop
879026a0:	24030078 	li	v1,120
879026a4:	1443fff7 	bne	v0,v1,87902684 <testddrread>
879026a8:	00000000 	nop
879026ac:	3c048790 	lui	a0,0x8790
879026b0:	2484677a 	addiu	a0,a0,26490
879026b4:	04110526 	bal	87903b50 <stringserial>
879026b8:	00000000 	nop
879026bc:	24040008 	li	a0,8
879026c0:	041103c7 	bal	879035e0 <inputhex>
879026c4:	00000000 	nop
879026c8:	00407821 	move	t7,v0
879026cc:	3c048790 	lui	a0,0x8790
879026d0:	2484678a 	addiu	a0,a0,26506
879026d4:	0411051e 	bal	87903b50 <stringserial>
879026d8:	00000000 	nop
879026dc:	8df80000 	lw	t8,0(t7)
879026e0:	01e02021 	move	a0,t7
879026e4:	04110532 	bal	87903bb0 <hexserial>
879026e8:	00000000 	nop
879026ec:	3c048790 	lui	a0,0x8790
879026f0:	2484678d 	addiu	a0,a0,26509
879026f4:	04110516 	bal	87903b50 <stringserial>
879026f8:	00000000 	nop
879026fc:	03002021 	move	a0,t8
87902700:	0411052b 	bal	87903bb0 <hexserial>
87902704:	00000000 	nop
87902708:	3c048790 	lui	a0,0x8790
8790270c:	2484678f 	addiu	a0,a0,26511
87902710:	0411050f 	bal	87903b50 <stringserial>
87902714:	00000000 	nop
87902718:	25ef0004 	addiu	t7,t7,4
8790271c:	1000ffef 	b	879026dc <testddrread+0x58>
87902720:	00000000 	nop

87902724 <rwtest>:
rwtest():
87902724:	3c048790 	lui	a0,0x8790
87902728:	24846792 	addiu	a0,a0,26514
8790272c:	04110508 	bal	87903b50 <stringserial>
87902730:	00000000 	nop
87902734:	00000000 	nop
87902738:	04110545 	bal	87903c50 <tgt_getchar>
8790273c:	00000000 	nop
87902740:	24030078 	li	v1,120
87902744:	1443fff7 	bne	v0,v1,87902724 <rwtest>
87902748:	00000000 	nop
8790274c:	3c048790 	lui	a0,0x8790
87902750:	248467b0 	addiu	a0,a0,26544
87902754:	041104fe 	bal	87903b50 <stringserial>
87902758:	00000000 	nop
8790275c:	24040008 	li	a0,8
87902760:	0411039f 	bal	879035e0 <inputhex>
87902764:	00000000 	nop
87902768:	00407821 	move	t7,v0
8790276c:	3c048790 	lui	a0,0x8790
87902770:	248467c0 	addiu	a0,a0,26560
87902774:	041104f6 	bal	87903b50 <stringserial>
87902778:	00000000 	nop
8790277c:	3c048790 	lui	a0,0x8790
87902780:	248467c3 	addiu	a0,a0,26563
87902784:	041104f2 	bal	87903b50 <stringserial>
87902788:	00000000 	nop
8790278c:	24040008 	li	a0,8
87902790:	04110393 	bal	879035e0 <inputhex>
87902794:	00000000 	nop
87902798:	00407021 	move	t6,v0
8790279c:	3c048790 	lui	a0,0x8790
879027a0:	248467d0 	addiu	a0,a0,26576
879027a4:	041104ea 	bal	87903b50 <stringserial>
879027a8:	00000000 	nop
879027ac:	ade20000 	sw	v0,0(t7)
879027b0:	3c048790 	lui	a0,0x8790
879027b4:	248467e1 	addiu	a0,a0,26593
879027b8:	041104e5 	bal	87903b50 <stringserial>
879027bc:	00000000 	nop
879027c0:	8df80000 	lw	t8,0(t7)
879027c4:	3c048790 	lui	a0,0x8790
879027c8:	248467ef 	addiu	a0,a0,26607
879027cc:	041104e0 	bal	87903b50 <stringserial>
879027d0:	00000000 	nop
879027d4:	01c02021 	move	a0,t6
879027d8:	041104f5 	bal	87903bb0 <hexserial>
879027dc:	00000000 	nop
879027e0:	130e0005 	beq	t8,t6,879027f8 <rwtest+0xd4>
879027e4:	00000000 	nop
879027e8:	3c048790 	lui	a0,0x8790
879027ec:	248467fc 	addiu	a0,a0,26620
879027f0:	041104d7 	bal	87903b50 <stringserial>
879027f4:	00000000 	nop
879027f8:	3c048790 	lui	a0,0x8790
879027fc:	248467fe 	addiu	a0,a0,26622
87902800:	041104d3 	bal	87903b50 <stringserial>
87902804:	00000000 	nop
87902808:	03002021 	move	a0,t8
8790280c:	041104e8 	bal	87903bb0 <hexserial>
87902810:	00000000 	nop
87902814:	3c048790 	lui	a0,0x8790
87902818:	24846800 	addiu	a0,a0,26624
8790281c:	041104cc 	bal	87903b50 <stringserial>
87902820:	00000000 	nop
87902824:	01e02021 	move	a0,t7
87902828:	041104e1 	bal	87903bb0 <hexserial>
8790282c:	00000000 	nop
87902830:	3c048790 	lui	a0,0x8790
87902834:	24846802 	addiu	a0,a0,26626
87902838:	041104c5 	bal	87903b50 <stringserial>
8790283c:	00000000 	nop
87902840:	1000ffc2 	b	8790274c <rwtest+0x28>
87902844:	00000000 	nop

87902848 <mydebug_start>:
mydebug_start():
87902848:	3c048790 	lui	a0,0x8790
8790284c:	24846805 	addiu	a0,a0,26629
87902850:	041104bf 	bal	87903b50 <stringserial>
87902854:	00000000 	nop
87902858:	00000000 	nop
8790285c:	041104fc 	bal	87903c50 <tgt_getchar>
87902860:	00000000 	nop
87902864:	24030078 	li	v1,120
87902868:	1443fff7 	bne	v0,v1,87902848 <mydebug_start>
8790286c:	00000000 	nop

87902870 <mydebug_restarth>:
mydebug_restarth():
87902870:	3c048790 	lui	a0,0x8790
87902874:	2484681e 	addiu	a0,a0,26654
87902878:	041104b5 	bal	87903b50 <stringserial>
8790287c:	00000000 	nop

87902880 <mydebug_restart>:
mydebug_restart():
87902880:	00007021 	move	t6,zero
87902884:	3c048790 	lui	a0,0x8790
87902888:	248469c4 	addiu	a0,a0,27076
8790288c:	041104b0 	bal	87903b50 <stringserial>
87902890:	00000000 	nop

87902894 <mydebug_restart_flags>:
mydebug_restart_flags():
87902894:	041104ee 	bal	87903c50 <tgt_getchar>
87902898:	00000000 	nop
8790289c:	2403006d 	li	v1,109
879028a0:	10430048 	beq	v0,v1,879029c4 <func_m>
879028a4:	00000000 	nop
879028a8:	24030064 	li	v1,100
879028ac:	10430098 	beq	v0,v1,87902b10 <func_d>
879028b0:	00000000 	nop
879028b4:	2403004d 	li	v1,77
879028b8:	10430042 	beq	v0,v1,879029c4 <func_m>
879028bc:	00000000 	nop
879028c0:	24030044 	li	v1,68
879028c4:	10430092 	beq	v0,v1,87902b10 <func_d>
879028c8:	00000000 	nop
879028cc:	24030063 	li	v1,99
879028d0:	10430107 	beq	v0,v1,87902cf0 <func_s>
879028d4:	00000000 	nop
879028d8:	24030073 	li	v1,115
879028dc:	10430104 	beq	v0,v1,87902cf0 <func_s>
879028e0:	00000000 	nop
879028e4:	24030074 	li	v1,116
879028e8:	10430101 	beq	v0,v1,87902cf0 <func_s>
879028ec:	00000000 	nop
879028f0:	24030043 	li	v1,67
879028f4:	104300fe 	beq	v0,v1,87902cf0 <func_s>
879028f8:	00000000 	nop
879028fc:	24030053 	li	v1,83
87902900:	104300fb 	beq	v0,v1,87902cf0 <func_s>
87902904:	00000000 	nop
87902908:	24030054 	li	v1,84
8790290c:	104300f8 	beq	v0,v1,87902cf0 <func_s>
87902910:	00000000 	nop
87902914:	24030067 	li	v1,103
87902918:	104300f3 	beq	v0,v1,87902ce8 <func_g>
8790291c:	00000000 	nop
87902920:	24030066 	li	v1,102
87902924:	104301a5 	beq	v0,v1,87902fbc <func_f>
87902928:	00000000 	nop
8790292c:	2403000d 	li	v1,13
87902930:	104300e1 	beq	v0,v1,87902cb8 <d_end>
87902934:	00000000 	nop
87902938:	2403002d 	li	v1,45
8790293c:	10430012 	beq	v0,v1,87902988 <func_flags>
87902940:	00000000 	nop
87902944:	2403006b 	li	v1,107
87902948:	104301a7 	beq	v0,v1,87902fe8 <func_k>
8790294c:	00000000 	nop
87902950:	24030070 	li	v1,112
87902954:	1043020e 	beq	v0,v1,87903190 <func_p>
87902958:	00000000 	nop
8790295c:	24030062 	li	v1,98
87902960:	1043025e 	beq	v0,v1,879032dc <func_b>
87902964:	00000000 	nop
87902968:	24030069 	li	v1,105
8790296c:	104302a5 	beq	v0,v1,87903404 <func_i>
87902970:	00000000 	nop
87902974:	24030051 	li	v1,81
87902978:	104302e4 	beq	v0,v1,8790350c <func_Q>
8790297c:	00000000 	nop
87902980:	1000ffbb 	b	87902870 <mydebug_restarth>
87902984:	00000000 	nop

87902988 <func_flags>:
func_flags():
87902988:	00402021 	move	a0,v0
8790298c:	0411049c 	bal	87903c00 <tgt_putchar>
87902990:	00000000 	nop
87902994:	041104ae 	bal	87903c50 <tgt_getchar>
87902998:	00000000 	nop
8790299c:	000e7200 	sll	t6,t6,0x8
879029a0:	01c27025 	or	t6,t6,v0
879029a4:	00402021 	move	a0,v0
879029a8:	04110495 	bal	87903c00 <tgt_putchar>
879029ac:	00000000 	nop
879029b0:	24040020 	li	a0,32
879029b4:	04110492 	bal	87903c00 <tgt_putchar>
879029b8:	00000000 	nop
879029bc:	1000ffb5 	b	87902894 <mydebug_restart_flags>
879029c0:	00000000 	nop

879029c4 <func_m>:
func_m():
879029c4:	000e7200 	sll	t6,t6,0x8
879029c8:	01c27025 	or	t6,t6,v0
879029cc:	00402021 	move	a0,v0
879029d0:	0411048b 	bal	87903c00 <tgt_putchar>
879029d4:	00000000 	nop
879029d8:	0411049d 	bal	87903c50 <tgt_getchar>
879029dc:	00000000 	nop
879029e0:	24030031 	li	v1,49
879029e4:	1043000c 	beq	v0,v1,87902a18 <func_m+0x54>
879029e8:	00000000 	nop
879029ec:	24030032 	li	v1,50
879029f0:	10430009 	beq	v0,v1,87902a18 <func_m+0x54>
879029f4:	00000000 	nop
879029f8:	24030034 	li	v1,52
879029fc:	10430006 	beq	v0,v1,87902a18 <func_m+0x54>
87902a00:	00000000 	nop
87902a04:	24030038 	li	v1,56
87902a08:	10430003 	beq	v0,v1,87902a18 <func_m+0x54>
87902a0c:	00000000 	nop
87902a10:	100000a9 	b	87902cb8 <d_end>
87902a14:	00000000 	nop
87902a18:	000e7200 	sll	t6,t6,0x8
87902a1c:	01c27025 	or	t6,t6,v0
87902a20:	00402021 	move	a0,v0
87902a24:	04110476 	bal	87903c00 <tgt_putchar>
87902a28:	00000000 	nop
87902a2c:	24040020 	li	a0,32
87902a30:	04110473 	bal	87903c00 <tgt_putchar>
87902a34:	00000000 	nop
87902a38:	041102b6 	bal	87903514 <inputaddress>
87902a3c:	00000000 	nop

87902a40 <m_loop>:
m_loop():
87902a40:	3c048790 	lui	a0,0x8790
87902a44:	248469c6 	addiu	a0,a0,27078
87902a48:	04110441 	bal	87903b50 <stringserial>
87902a4c:	00000000 	nop
87902a50:	01e02021 	move	a0,t7
87902a54:	04110456 	bal	87903bb0 <hexserial>
87902a58:	00000000 	nop
87902a5c:	3c048790 	lui	a0,0x8790
87902a60:	248469c9 	addiu	a0,a0,27081
87902a64:	0411043a 	bal	87903b50 <stringserial>
87902a68:	00000000 	nop
87902a6c:	31c4000f 	andi	a0,t6,0xf
87902a70:	00042040 	sll	a0,a0,0x1
87902a74:	04110316 	bal	879036d0 <Inputhex>
87902a78:	00000000 	nop
87902a7c:	0040c021 	move	t8,v0
87902a80:	24020071 	li	v0,113
87902a84:	1043001c 	beq	v0,v1,87902af8 <m_end>
87902a88:	00000000 	nop
87902a8c:	31c2000f 	andi	v0,t6,0xf
87902a90:	24030002 	li	v1,2
87902a94:	1043000b 	beq	v0,v1,87902ac4 <m_loop+0x84>
87902a98:	00000000 	nop
87902a9c:	24030004 	li	v1,4
87902aa0:	1043000c 	beq	v0,v1,87902ad4 <m_loop+0x94>
87902aa4:	00000000 	nop
87902aa8:	24030008 	li	v1,8
87902aac:	1043000d 	beq	v0,v1,87902ae4 <m_loop+0xa4>
87902ab0:	00000000 	nop
87902ab4:	a1f80000 	sb	t8,0(t7)
87902ab8:	25ef0001 	addiu	t7,t7,1
87902abc:	1000ffe0 	b	87902a40 <m_loop>
87902ac0:	00000000 	nop
87902ac4:	a5f80000 	sh	t8,0(t7)
87902ac8:	25ef0002 	addiu	t7,t7,2
87902acc:	1000ffdc 	b	87902a40 <m_loop>
87902ad0:	00000000 	nop
87902ad4:	adf80000 	sw	t8,0(t7)
87902ad8:	25ef0004 	addiu	t7,t7,4
87902adc:	1000ffd8 	b	87902a40 <m_loop>
87902ae0:	00000000 	nop
87902ae4:	adf80000 	sw	t8,0(t7)
87902ae8:	adf90004 	sw	t9,4(t7)
87902aec:	25ef0008 	addiu	t7,t7,8
87902af0:	1000ffd3 	b	87902a40 <m_loop>
87902af4:	00000000 	nop

87902af8 <m_end>:
m_end():
87902af8:	3c048790 	lui	a0,0x8790
87902afc:	248469cc 	addiu	a0,a0,27084
87902b00:	04110413 	bal	87903b50 <stringserial>
87902b04:	00000000 	nop
87902b08:	1000ff5d 	b	87902880 <mydebug_restart>
87902b0c:	00000000 	nop

87902b10 <func_d>:
func_d():
87902b10:	000e7200 	sll	t6,t6,0x8
87902b14:	01c27025 	or	t6,t6,v0
87902b18:	00402021 	move	a0,v0
87902b1c:	04110438 	bal	87903c00 <tgt_putchar>
87902b20:	00000000 	nop
87902b24:	0411044a 	bal	87903c50 <tgt_getchar>
87902b28:	00000000 	nop
87902b2c:	24030031 	li	v1,49
87902b30:	1043000c 	beq	v0,v1,87902b64 <func_d+0x54>
87902b34:	00000000 	nop
87902b38:	24030032 	li	v1,50
87902b3c:	10430009 	beq	v0,v1,87902b64 <func_d+0x54>
87902b40:	00000000 	nop
87902b44:	24030034 	li	v1,52
87902b48:	10430006 	beq	v0,v1,87902b64 <func_d+0x54>
87902b4c:	00000000 	nop
87902b50:	24030038 	li	v1,56
87902b54:	10430003 	beq	v0,v1,87902b64 <func_d+0x54>
87902b58:	00000000 	nop
87902b5c:	10000056 	b	87902cb8 <d_end>
87902b60:	00000000 	nop
87902b64:	000e7200 	sll	t6,t6,0x8
87902b68:	01c27025 	or	t6,t6,v0
87902b6c:	00402021 	move	a0,v0
87902b70:	04110423 	bal	87903c00 <tgt_putchar>
87902b74:	00000000 	nop
87902b78:	24040020 	li	a0,32
87902b7c:	04110420 	bal	87903c00 <tgt_putchar>
87902b80:	00000000 	nop
87902b84:	04110263 	bal	87903514 <inputaddress>
87902b88:	00000000 	nop
87902b8c:	24040020 	li	a0,32
87902b90:	0411041b 	bal	87903c00 <tgt_putchar>
87902b94:	00000000 	nop
87902b98:	3c048790 	lui	a0,0x8790
87902b9c:	248469cf 	addiu	a0,a0,27087
87902ba0:	041103eb 	bal	87903b50 <stringserial>
87902ba4:	00000000 	nop
87902ba8:	24040008 	li	a0,8
87902bac:	0411028c 	bal	879035e0 <inputhex>
87902bb0:	00000000 	nop
87902bb4:	00406821 	move	t5,v0
87902bb8:	31c2000f 	andi	v0,t6,0xf
87902bbc:	01a20019 	multu	t5,v0
87902bc0:	00006812 	mflo	t5
87902bc4:	00006021 	move	t4,zero
87902bc8:	11ac003b 	beq	t5,t4,87902cb8 <d_end>
87902bcc:	00000000 	nop

87902bd0 <d_loop>:
d_loop():
87902bd0:	3c048790 	lui	a0,0x8790
87902bd4:	248469d3 	addiu	a0,a0,27091
87902bd8:	041103dd 	bal	87903b50 <stringserial>
87902bdc:	00000000 	nop
87902be0:	01e02021 	move	a0,t7
87902be4:	041103f2 	bal	87903bb0 <hexserial>
87902be8:	00000000 	nop
87902bec:	3c048790 	lui	a0,0x8790
87902bf0:	248469d6 	addiu	a0,a0,27094
87902bf4:	041103d6 	bal	87903b50 <stringserial>
87902bf8:	00000000 	nop

87902bfc <d_loop1>:
d_loop1():
87902bfc:	31c2000f 	andi	v0,t6,0xf
87902c00:	24030002 	li	v1,2
87902c04:	1043000d 	beq	v0,v1,87902c3c <d_loop1+0x40>
87902c08:	00000000 	nop
87902c0c:	24030004 	li	v1,4
87902c10:	10430010 	beq	v0,v1,87902c54 <d_loop1+0x58>
87902c14:	00000000 	nop
87902c18:	24030008 	li	v1,8
87902c1c:	10430013 	beq	v0,v1,87902c6c <d_loop1+0x70>
87902c20:	00000000 	nop
87902c24:	91e40000 	lbu	a0,0(t7)
87902c28:	24050002 	li	a1,2
87902c2c:	25ef0001 	addiu	t7,t7,1
87902c30:	258c0001 	addiu	t4,t4,1
87902c34:	10000014 	b	87902c88 <d_disp>
87902c38:	00000000 	nop
87902c3c:	95e40000 	lhu	a0,0(t7)
87902c40:	24050004 	li	a1,4
87902c44:	25ef0002 	addiu	t7,t7,2
87902c48:	258c0002 	addiu	t4,t4,2
87902c4c:	1000000e 	b	87902c88 <d_disp>
87902c50:	00000000 	nop
87902c54:	8de40000 	lw	a0,0(t7)
87902c58:	24050008 	li	a1,8
87902c5c:	25ef0004 	addiu	t7,t7,4
87902c60:	258c0004 	addiu	t4,t4,4
87902c64:	10000008 	b	87902c88 <d_disp>
87902c68:	00000000 	nop
87902c6c:	8de40000 	lw	a0,0(t7)
87902c70:	8de50004 	lw	a1,4(t7)
87902c74:	24050010 	li	a1,16
87902c78:	25ef0008 	addiu	t7,t7,8
87902c7c:	258c0008 	addiu	t4,t4,8
87902c80:	10000001 	b	87902c88 <d_disp>
87902c84:	00000000 	nop

87902c88 <d_disp>:
d_disp():
87902c88:	041102cd 	bal	879037c0 <Hexserial>
87902c8c:	00000000 	nop
87902c90:	24040020 	li	a0,32
87902c94:	041103da 	bal	87903c00 <tgt_putchar>
87902c98:	00000000 	nop
87902c9c:	11ac0006 	beq	t5,t4,87902cb8 <d_end>
87902ca0:	00000000 	nop
87902ca4:	3182000f 	andi	v0,t4,0xf
87902ca8:	1440ffd4 	bnez	v0,87902bfc <d_loop1>
87902cac:	00000000 	nop
87902cb0:	1000ffc7 	b	87902bd0 <d_loop>
87902cb4:	00000000 	nop

87902cb8 <d_end>:
d_end():
87902cb8:	3c048790 	lui	a0,0x8790
87902cbc:	248469d9 	addiu	a0,a0,27097
87902cc0:	041103a3 	bal	87903b50 <stringserial>
87902cc4:	00000000 	nop
87902cc8:	1000feed 	b	87902880 <mydebug_restart>
87902ccc:	00000000 	nop

87902cd0 <func_qh>:
func_qh():
87902cd0:	3c048790 	lui	a0,0x8790
87902cd4:	248469dc 	addiu	a0,a0,27100
87902cd8:	0411039d 	bal	87903b50 <stringserial>
87902cdc:	00000000 	nop
87902ce0:	1000fee3 	b	87902870 <mydebug_restarth>
87902ce4:	00000000 	nop

87902ce8 <func_g>:
func_g():
87902ce8:	1000f7b8 	b	87900bcc <mycmd_loop>
87902cec:	00000000 	nop

87902cf0 <func_s>:
func_s():
87902cf0:	000e7200 	sll	t6,t6,0x8
87902cf4:	01c27025 	or	t6,t6,v0
87902cf8:	00402021 	move	a0,v0
87902cfc:	041103c0 	bal	87903c00 <tgt_putchar>
87902d00:	00000000 	nop
87902d04:	041103d2 	bal	87903c50 <tgt_getchar>
87902d08:	00000000 	nop
87902d0c:	24030031 	li	v1,49
87902d10:	1043000c 	beq	v0,v1,87902d44 <func_s+0x54>
87902d14:	00000000 	nop
87902d18:	24030032 	li	v1,50
87902d1c:	10430009 	beq	v0,v1,87902d44 <func_s+0x54>
87902d20:	00000000 	nop
87902d24:	24030034 	li	v1,52
87902d28:	10430006 	beq	v0,v1,87902d44 <func_s+0x54>
87902d2c:	00000000 	nop
87902d30:	24030038 	li	v1,56
87902d34:	10430003 	beq	v0,v1,87902d44 <func_s+0x54>
87902d38:	00000000 	nop
87902d3c:	1000ffde 	b	87902cb8 <d_end>
87902d40:	00000000 	nop
87902d44:	000e7200 	sll	t6,t6,0x8
87902d48:	01c27025 	or	t6,t6,v0
87902d4c:	00402021 	move	a0,v0
87902d50:	041103ab 	bal	87903c00 <tgt_putchar>
87902d54:	00000000 	nop
87902d58:	24040020 	li	a0,32
87902d5c:	041103a8 	bal	87903c00 <tgt_putchar>
87902d60:	00000000 	nop
87902d64:	041101eb 	bal	87903514 <inputaddress>
87902d68:	00000000 	nop
87902d6c:	24040020 	li	a0,32
87902d70:	041103a3 	bal	87903c00 <tgt_putchar>
87902d74:	00000000 	nop
87902d78:	041101fd 	bal	87903570 <inputdata>
87902d7c:	00000000 	nop
87902d80:	03006821 	move	t5,t8
87902d84:	3c048790 	lui	a0,0x8790
87902d88:	248469df 	addiu	a0,a0,27103
87902d8c:	04110370 	bal	87903b50 <stringserial>
87902d90:	00000000 	nop
87902d94:	24040008 	li	a0,8
87902d98:	0411024d 	bal	879036d0 <Inputhex>
87902d9c:	00000000 	nop
87902da0:	00406021 	move	t4,v0
87902da4:	24040020 	li	a0,32
87902da8:	04110395 	bal	87903c00 <tgt_putchar>
87902dac:	00000000 	nop
87902db0:	041101ef 	bal	87903570 <inputdata>
87902db4:	00000000 	nop
87902db8:	3c048790 	lui	a0,0x8790
87902dbc:	248469e4 	addiu	a0,a0,27108
87902dc0:	04110363 	bal	87903b50 <stringserial>
87902dc4:	00000000 	nop
87902dc8:	1180ffbb 	beqz	t4,87902cb8 <d_end>
87902dcc:	00000000 	nop

87902dd0 <sc_loop>:
sc_loop():
87902dd0:	000e1402 	srl	v0,t6,0x10
87902dd4:	304200ff 	andi	v0,v0,0xff
87902dd8:	24030076 	li	v1,118
87902ddc:	14430008 	bne	v0,v1,87902e00 <sc_loop+0x30>
87902de0:	00000000 	nop
87902de4:	01e02021 	move	a0,t7
87902de8:	04110371 	bal	87903bb0 <hexserial>
87902dec:	00000000 	nop
87902df0:	3c048790 	lui	a0,0x8790
87902df4:	248469e7 	addiu	a0,a0,27111
87902df8:	04110355 	bal	87903b50 <stringserial>
87902dfc:	00000000 	nop
87902e00:	31c21000 	andi	v0,t6,0x1000
87902e04:	14400003 	bnez	v0,87902e14 <s_loop>
87902e08:	00000000 	nop
87902e0c:	10000026 	b	87902ea8 <c_loop>
87902e10:	00000000 	nop

87902e14 <s_loop>:
s_loop():
87902e14:	31c2000f 	andi	v0,t6,0xf
87902e18:	24030002 	li	v1,2
87902e1c:	1043000a 	beq	v0,v1,87902e48 <s_loop+0x34>
87902e20:	00000000 	nop
87902e24:	24030004 	li	v1,4
87902e28:	1043000a 	beq	v0,v1,87902e54 <s_loop+0x40>
87902e2c:	00000000 	nop
87902e30:	24030008 	li	v1,8
87902e34:	1043000a 	beq	v0,v1,87902e60 <s_loop+0x4c>
87902e38:	00000000 	nop
87902e3c:	a1ed0000 	sb	t5,0(t7)
87902e40:	10000009 	b	87902e68 <s_next>
87902e44:	00000000 	nop
87902e48:	a5ed0000 	sh	t5,0(t7)
87902e4c:	10000006 	b	87902e68 <s_next>
87902e50:	00000000 	nop
87902e54:	aded0000 	sw	t5,0(t7)
87902e58:	10000003 	b	87902e68 <s_next>
87902e5c:	00000000 	nop
87902e60:	aded0000 	sw	t5,0(t7)
87902e64:	adee0004 	sw	t6,4(t7)

87902e68 <s_next>:
s_next():
87902e68:	31c40100 	andi	a0,t6,0x100
87902e6c:	1080000e 	beqz	a0,87902ea8 <c_loop>
87902e70:	00000000 	nop
87902e74:	31c4000f 	andi	a0,t6,0xf
87902e78:	01e47821 	addu	t7,t7,a0
87902e7c:	000e2c02 	srl	a1,t6,0x10
87902e80:	10a00003 	beqz	a1,87902e90 <s_next+0x28>
87902e84:	00000000 	nop
87902e88:	01e47823 	subu	t7,t7,a0
87902e8c:	01e47823 	subu	t7,t7,a0
87902e90:	258cffff 	addiu	t4,t4,-1
87902e94:	01b86821 	addu	t5,t5,t8
87902e98:	1580ffcd 	bnez	t4,87902dd0 <sc_loop>
87902e9c:	00000000 	nop
87902ea0:	1000ff85 	b	87902cb8 <d_end>
87902ea4:	00000000 	nop

87902ea8 <c_loop>:
c_loop():
87902ea8:	31c2000f 	andi	v0,t6,0xf
87902eac:	24030002 	li	v1,2
87902eb0:	1043000c 	beq	v0,v1,87902ee4 <c_loop+0x3c>
87902eb4:	00000000 	nop
87902eb8:	24030004 	li	v1,4
87902ebc:	1043000e 	beq	v0,v1,87902ef8 <c_loop+0x50>
87902ec0:	00000000 	nop
87902ec4:	24030008 	li	v1,8
87902ec8:	10430010 	beq	v0,v1,87902f0c <c_loop+0x64>
87902ecc:	00000000 	nop
87902ed0:	91eb0000 	lbu	t3,0(t7)
87902ed4:	156d0013 	bne	t3,t5,87902f24 <c_disp>
87902ed8:	00000000 	nop
87902edc:	1000002a 	b	87902f88 <c_next>
87902ee0:	00000000 	nop
87902ee4:	95eb0000 	lhu	t3,0(t7)
87902ee8:	156d000e 	bne	t3,t5,87902f24 <c_disp>
87902eec:	00000000 	nop
87902ef0:	10000025 	b	87902f88 <c_next>
87902ef4:	00000000 	nop
87902ef8:	8deb0000 	lw	t3,0(t7)
87902efc:	156d0009 	bne	t3,t5,87902f24 <c_disp>
87902f00:	00000000 	nop
87902f04:	10000020 	b	87902f88 <c_next>
87902f08:	00000000 	nop
87902f0c:	8deb0000 	lw	t3,0(t7)
87902f10:	8dec0004 	lw	t4,4(t7)
87902f14:	156d0003 	bne	t3,t5,87902f24 <c_disp>
87902f18:	00000000 	nop
87902f1c:	1000001a 	b	87902f88 <c_next>
87902f20:	00000000 	nop

87902f24 <c_disp>:
c_disp():
87902f24:	01602021 	move	a0,t3
87902f28:	31c5000f 	andi	a1,t6,0xf
87902f2c:	00052840 	sll	a1,a1,0x1
87902f30:	04110223 	bal	879037c0 <Hexserial>
87902f34:	00000000 	nop
87902f38:	3c048790 	lui	a0,0x8790
87902f3c:	248469ea 	addiu	a0,a0,27114
87902f40:	04110303 	bal	87903b50 <stringserial>
87902f44:	00000000 	nop
87902f48:	01a02021 	move	a0,t5
87902f4c:	31c5000f 	andi	a1,t6,0xf
87902f50:	00052840 	sll	a1,a1,0x1
87902f54:	0411021a 	bal	879037c0 <Hexserial>
87902f58:	00000000 	nop
87902f5c:	3c048790 	lui	a0,0x8790
87902f60:	248469ed 	addiu	a0,a0,27117
87902f64:	041102fa 	bal	87903b50 <stringserial>
87902f68:	00000000 	nop
87902f6c:	01e02021 	move	a0,t7
87902f70:	0411030f 	bal	87903bb0 <hexserial>
87902f74:	00000000 	nop
87902f78:	3c048790 	lui	a0,0x8790
87902f7c:	248469f1 	addiu	a0,a0,27121
87902f80:	041102f3 	bal	87903b50 <stringserial>
87902f84:	00000000 	nop

87902f88 <c_next>:
c_next():
87902f88:	01b86821 	addu	t5,t5,t8
87902f8c:	31c4000f 	andi	a0,t6,0xf
87902f90:	01e47821 	addu	t7,t7,a0
87902f94:	000e2c02 	srl	a1,t6,0x10
87902f98:	10a00003 	beqz	a1,87902fa8 <c_next+0x20>
87902f9c:	00000000 	nop
87902fa0:	01e47823 	subu	t7,t7,a0
87902fa4:	01e47823 	subu	t7,t7,a0
87902fa8:	258cffff 	addiu	t4,t4,-1
87902fac:	1180ff42 	beqz	t4,87902cb8 <d_end>
87902fb0:	00000000 	nop
87902fb4:	1000ff86 	b	87902dd0 <sc_loop>
87902fb8:	00000000 	nop

87902fbc <func_f>:
func_f():
87902fbc:	000e7200 	sll	t6,t6,0x8
87902fc0:	01c27025 	or	t6,t6,v0
87902fc4:	00402021 	move	a0,v0
87902fc8:	0411030d 	bal	87903c00 <tgt_putchar>
87902fcc:	00000000 	nop
87902fd0:	3c048790 	lui	a0,0x8790
87902fd4:	248469f4 	addiu	a0,a0,27124
87902fd8:	041102dd 	bal	87903b50 <stringserial>
87902fdc:	00000000 	nop
87902fe0:	10000212 	b	8790382c <tgt_setddr>
87902fe4:	00000000 	nop

87902fe8 <func_k>:
func_k():
87902fe8:	00402021 	move	a0,v0
87902fec:	04110304 	bal	87903c00 <tgt_putchar>
87902ff0:	00000000 	nop
87902ff4:	04110316 	bal	87903c50 <tgt_getchar>
87902ff8:	00000000 	nop
87902ffc:	24030065 	li	v1,101
87903000:	10430006 	beq	v0,v1,8790301c <func_ke>
87903004:	00000000 	nop
87903008:	24030066 	li	v1,102
8790300c:	10430024 	beq	v0,v1,879030a0 <func_kf>
87903010:	00000000 	nop
87903014:	1000ff28 	b	87902cb8 <d_end>
87903018:	00000000 	nop

8790301c <func_ke>:
func_ke():
8790301c:	00402021 	move	a0,v0
87903020:	041102f7 	bal	87903c00 <tgt_putchar>
87903024:	00000000 	nop
87903028:	24040020 	li	a0,32
8790302c:	041102f4 	bal	87903c00 <tgt_putchar>
87903030:	00000000 	nop
87903034:	04110306 	bal	87903c50 <tgt_getchar>
87903038:	00000000 	nop
8790303c:	40048000 	mfc0	a0,$16
87903040:	2401fff8 	li	at,-8
87903044:	00812024 	and	a0,a0,at
87903048:	24030030 	li	v1,48
8790304c:	10430006 	beq	v0,v1,87903068 <func_ke+0x4c>
87903050:	00000000 	nop
87903054:	24030031 	li	v1,49
87903058:	1043000a 	beq	v0,v1,87903084 <func_ke+0x68>
8790305c:	00000000 	nop
87903060:	1000ff1b 	b	87902cd0 <func_qh>
87903064:	00000000 	nop
87903068:	00402021 	move	a0,v0
8790306c:	041102e4 	bal	87903c00 <tgt_putchar>
87903070:	00000000 	nop
87903074:	34840002 	ori	a0,a0,0x2
87903078:	40848000 	mtc0	a0,$16
8790307c:	1000ff0e 	b	87902cb8 <d_end>
87903080:	00000000 	nop
87903084:	00402021 	move	a0,v0
87903088:	041102dd 	bal	87903c00 <tgt_putchar>
8790308c:	00000000 	nop
87903090:	34840003 	ori	a0,a0,0x3
87903094:	40848000 	mtc0	a0,$16
87903098:	1000ff07 	b	87902cb8 <d_end>
8790309c:	00000000 	nop

879030a0 <func_kf>:
func_kf():
879030a0:	00402021 	move	a0,v0
879030a4:	041102d6 	bal	87903c00 <tgt_putchar>
879030a8:	00000000 	nop
879030ac:	24040020 	li	a0,32
879030b0:	041102d3 	bal	87903c00 <tgt_putchar>
879030b4:	00000000 	nop
879030b8:	041102e5 	bal	87903c50 <tgt_getchar>
879030bc:	00000000 	nop
879030c0:	24030031 	li	v1,49
879030c4:	10430009 	beq	v0,v1,879030ec <func_kf+0x4c>
879030c8:	00000000 	nop
879030cc:	24030032 	li	v1,50
879030d0:	10430015 	beq	v0,v1,87903128 <func_kf+0x88>
879030d4:	00000000 	nop
879030d8:	24030033 	li	v1,51
879030dc:	10430025 	beq	v0,v1,87903174 <func_kf+0xd4>
879030e0:	00000000 	nop
879030e4:	1000fefa 	b	87902cd0 <func_qh>
879030e8:	00000000 	nop
879030ec:	00402021 	move	a0,v0
879030f0:	041102c3 	bal	87903c00 <tgt_putchar>
879030f4:	00000000 	nop
879030f8:	3c048000 	lui	a0,0x8000
879030fc:	24854000 	addiu	a1,a0,16384
87903100:	bc810000 	cache	0x1,0(a0)
87903104:	bc810001 	cache	0x1,1(a0)
87903108:	bc810002 	cache	0x1,2(a0)
8790310c:	bc810003 	cache	0x1,3(a0)
87903110:	bc800000 	cache	0x0,0(a0)
87903114:	20840020 	addi	a0,a0,32
87903118:	1485fff9 	bne	a0,a1,87903100 <func_kf+0x60>
8790311c:	00000000 	nop
87903120:	1000fee5 	b	87902cb8 <d_end>
87903124:	00000000 	nop
87903128:	00402021 	move	a0,v0
8790312c:	041102b4 	bal	87903c00 <tgt_putchar>
87903130:	00000000 	nop
87903134:	40047800 	mfc0	a0,$15
87903138:	24056302 	li	a1,25346
8790313c:	14a4000b 	bne	a1,a0,8790316c <func_kf+0xcc>
87903140:	00000000 	nop
87903144:	3c058000 	lui	a1,0x8000
87903148:	3c010008 	lui	at,0x8
8790314c:	00a12021 	addu	a0,a1,at
87903150:	bca30000 	cache	0x3,0(a1)
87903154:	bca30001 	cache	0x3,1(a1)
87903158:	bca30002 	cache	0x3,2(a1)
8790315c:	bca30003 	cache	0x3,3(a1)
87903160:	24a50020 	addiu	a1,a1,32
87903164:	14a4fffa 	bne	a1,a0,87903150 <func_kf+0xb0>
87903168:	00000000 	nop
8790316c:	1000fed2 	b	87902cb8 <d_end>
87903170:	00000000 	nop
87903174:	3c028790 	lui	v0,0x8790
87903178:	24423ce0 	addiu	v0,v0,15584
8790317c:	00501021 	addu	v0,v0,s0
87903180:	0040f809 	jalr	v0
87903184:	00000000 	nop
87903188:	1000fecb 	b	87902cb8 <d_end>
8790318c:	00000000 	nop

87903190 <func_p>:
func_p():
87903190:	000e7200 	sll	t6,t6,0x8
87903194:	01c27025 	or	t6,t6,v0
87903198:	00402021 	move	a0,v0
8790319c:	04110298 	bal	87903c00 <tgt_putchar>
879031a0:	00000000 	nop
879031a4:	24040020 	li	a0,32
879031a8:	04110295 	bal	87903c00 <tgt_putchar>
879031ac:	00000000 	nop
879031b0:	3c048790 	lui	a0,0x8790
879031b4:	248469f7 	addiu	a0,a0,27127
879031b8:	04110265 	bal	87903b50 <stringserial>
879031bc:	00000000 	nop
879031c0:	24040001 	li	a0,1
879031c4:	04110106 	bal	879035e0 <inputhex>
879031c8:	00000000 	nop
879031cc:	00404021 	move	t0,v0
879031d0:	24040020 	li	a0,32
879031d4:	0411028a 	bal	87903c00 <tgt_putchar>
879031d8:	00000000 	nop
879031dc:	3c048790 	lui	a0,0x8790
879031e0:	248469fb 	addiu	a0,a0,27131
879031e4:	0411025a 	bal	87903b50 <stringserial>
879031e8:	00000000 	nop
879031ec:	24040002 	li	a0,2
879031f0:	041100fb 	bal	879035e0 <inputhex>
879031f4:	00000000 	nop
879031f8:	00404821 	move	t1,v0
879031fc:	24040020 	li	a0,32
87903200:	0411027f 	bal	87903c00 <tgt_putchar>
87903204:	00000000 	nop
87903208:	3c048790 	lui	a0,0x8790
8790320c:	248469ff 	addiu	a0,a0,27135
87903210:	0411024f 	bal	87903b50 <stringserial>
87903214:	00000000 	nop
87903218:	24040001 	li	a0,1
8790321c:	041100f0 	bal	879035e0 <inputhex>
87903220:	00000000 	nop
87903224:	00405021 	move	t2,v0
87903228:	24040020 	li	a0,32
8790322c:	04110274 	bal	87903c00 <tgt_putchar>
87903230:	00000000 	nop
87903234:	3c048790 	lui	a0,0x8790
87903238:	24846a03 	addiu	a0,a0,27139
8790323c:	04110244 	bal	87903b50 <stringserial>
87903240:	00000000 	nop
87903244:	24040002 	li	a0,2
87903248:	041100e5 	bal	879035e0 <inputhex>
8790324c:	00000000 	nop
87903250:	00405821 	move	t3,v0
87903254:	3c04bfe0 	lui	a0,0xbfe0
87903258:	3c023000 	lui	v0,0x3000
8790325c:	8c830004 	lw	v1,4(a0)
87903260:	00621825 	or	v1,v1,v0
87903264:	ac830004 	sw	v1,4(a0)
87903268:	00007821 	move	t7,zero
8790326c:	24020001 	li	v0,1
87903270:	2523000b 	addiu	v1,t1,11
87903274:	00621004 	sllv	v0,v0,v1
87903278:	11000003 	beqz	t0,87903288 <func_p+0xf8>
8790327c:	00000000 	nop
87903280:	00087c00 	sll	t7,t0,0x10
87903284:	000912c0 	sll	v0,t1,0xb
87903288:	01e27825 	or	t7,t7,v0
8790328c:	000a1200 	sll	v0,t2,0x8
87903290:	01e27825 	or	t7,t7,v0
87903294:	01eb7825 	or	t7,t7,t3
87903298:	000f1402 	srl	v0,t7,0x10
8790329c:	11000002 	beqz	t0,879032a8 <func_p+0x118>
879032a0:	00000000 	nop
879032a4:	34421000 	ori	v0,v0,0x1000
879032a8:	3c04bfe0 	lui	a0,0xbfe0
879032ac:	ac820118 	sw	v0,280(a0)
879032b0:	3c048790 	lui	a0,0x8790
879032b4:	24846a07 	addiu	a0,a0,27143
879032b8:	04110225 	bal	87903b50 <stringserial>
879032bc:	00000000 	nop
879032c0:	3c02bfe0 	lui	v0,0xbfe0
879032c4:	31e3fffc 	andi	v1,t7,0xfffc
879032c8:	00432025 	or	a0,v0,v1
879032cc:	04110238 	bal	87903bb0 <hexserial>
879032d0:	00000000 	nop
879032d4:	1000fe78 	b	87902cb8 <d_end>
879032d8:	00000000 	nop

879032dc <func_b>:
func_b():
879032dc:	00402021 	move	a0,v0
879032e0:	04110247 	bal	87903c00 <tgt_putchar>
879032e4:	00000000 	nop
879032e8:	3c048790 	lui	a0,0x8790
879032ec:	24846a16 	addiu	a0,a0,27158
879032f0:	04110217 	bal	87903b50 <stringserial>
879032f4:	00000000 	nop
879032f8:	24040003 	li	a0,3
879032fc:	041100b8 	bal	879035e0 <inputhex>
87903300:	00000000 	nop
87903304:	00406821 	move	t5,v0
87903308:	3c048790 	lui	a0,0x8790
8790330c:	24846a1b 	addiu	a0,a0,27163
87903310:	0411020f 	bal	87903b50 <stringserial>
87903314:	00000000 	nop
87903318:	24040003 	li	a0,3
8790331c:	041100b0 	bal	879035e0 <inputhex>
87903320:	00000000 	nop
87903324:	00407021 	move	t6,v0
87903328:	3c048790 	lui	a0,0x8790
8790332c:	24846a20 	addiu	a0,a0,27168
87903330:	04110207 	bal	87903b50 <stringserial>
87903334:	00000000 	nop
87903338:	24040001 	li	a0,1
8790333c:	041100a8 	bal	879035e0 <inputhex>
87903340:	00000000 	nop
87903344:	00407821 	move	t7,v0
87903348:	3c048790 	lui	a0,0x8790
8790334c:	24846a25 	addiu	a0,a0,27173
87903350:	041101ff 	bal	87903b50 <stringserial>
87903354:	00000000 	nop
87903358:	3c048790 	lui	a0,0x8790
8790335c:	24840000 	addiu	a0,a0,0
87903360:	3c05bfc0 	lui	a1,0xbfc0
87903364:	3c068796 	lui	a2,0x8796
87903368:	24c6c010 	addiu	a2,a2,-16368
8790336c:	3c01a000 	lui	at,0xa000
87903370:	00812025 	or	a0,a0,at
87903374:	3c01a000 	lui	at,0xa000
87903378:	00c13025 	or	a2,a2,at
8790337c:	8ca70000 	lw	a3,0(a1)
87903380:	00000000 	nop
87903384:	ac870000 	sw	a3,0(a0)
87903388:	24840004 	addiu	a0,a0,4
8790338c:	24a50004 	addiu	a1,a1,4
87903390:	14c4fffa 	bne	a2,a0,8790337c <func_b+0xa0>
87903394:	00000000 	nop
87903398:	3c048790 	lui	a0,0x8790
8790339c:	24846a4a 	addiu	a0,a0,27210
879033a0:	041101eb 	bal	87903b50 <stringserial>
879033a4:	00000000 	nop
879033a8:	3c048796 	lui	a0,0x8796
879033ac:	2484c010 	addiu	a0,a0,-16368
879033b0:	3c068796 	lui	a2,0x8796
879033b4:	24c6d028 	addiu	a2,a2,-12248
879033b8:	3c01a000 	lui	at,0xa000
879033bc:	00812025 	or	a0,a0,at
879033c0:	3c01a000 	lui	at,0xa000
879033c4:	00c13025 	or	a2,a2,at
879033c8:	ac800000 	sw	zero,0(a0)
879033cc:	14c4fffe 	bne	a2,a0,879033c8 <func_b+0xec>
879033d0:	24840004 	addiu	a0,a0,4
879033d4:	3c048790 	lui	a0,0x8790
879033d8:	24846a65 	addiu	a0,a0,27237
879033dc:	041101dc 	bal	87903b50 <stringserial>
879033e0:	00000000 	nop
879033e4:	24040000 	li	a0,0
879033e8:	01a02021 	move	a0,t5
879033ec:	01c02821 	move	a1,t6
879033f0:	01e03021 	move	a2,t7
879033f4:	3c028790 	lui	v0,0x8790
879033f8:	244257dc 	addiu	v0,v0,22492
879033fc:	0040f809 	jalr	v0
87903400:	00000000 	nop

87903404 <func_i>:
func_i():
87903404:	00402021 	move	a0,v0
87903408:	041101fd 	bal	87903c00 <tgt_putchar>
8790340c:	00000000 	nop
87903410:	3c048790 	lui	a0,0x8790
87903414:	24846a8b 	addiu	a0,a0,27275
87903418:	041101cd 	bal	87903b50 <stringserial>
8790341c:	00000000 	nop
87903420:	24040001 	li	a0,1
87903424:	0411006e 	bal	879035e0 <inputhex>
87903428:	00000000 	nop
8790342c:	00406821 	move	t5,v0
87903430:	3c048790 	lui	a0,0x8790
87903434:	24846a90 	addiu	a0,a0,27280
87903438:	041101c5 	bal	87903b50 <stringserial>
8790343c:	00000000 	nop
87903440:	24040002 	li	a0,2
87903444:	04110066 	bal	879035e0 <inputhex>
87903448:	00000000 	nop
8790344c:	00407021 	move	t6,v0
87903450:	3c048790 	lui	a0,0x8790
87903454:	24846a95 	addiu	a0,a0,27285
87903458:	041101bd 	bal	87903b50 <stringserial>
8790345c:	00000000 	nop
87903460:	24040003 	li	a0,3
87903464:	0411005e 	bal	879035e0 <inputhex>
87903468:	00000000 	nop
8790346c:	00407821 	move	t7,v0
87903470:	000d6840 	sll	t5,t5,0x1
87903474:	35ad00a0 	ori	t5,t5,0xa0
87903478:	240c0000 	li	t4,0
8790347c:	3182000f 	andi	v0,t4,0xf
87903480:	1440000d 	bnez	v0,879034b8 <func_i+0xb4>
87903484:	00000000 	nop
87903488:	3c048790 	lui	a0,0x8790
8790348c:	24846a9a 	addiu	a0,a0,27290
87903490:	041101af 	bal	87903b50 <stringserial>
87903494:	00000000 	nop
87903498:	01c02021 	move	a0,t6
8790349c:	24050002 	li	a1,2
879034a0:	041100c7 	bal	879037c0 <Hexserial>
879034a4:	00000000 	nop
879034a8:	3c048790 	lui	a0,0x8790
879034ac:	24846a9d 	addiu	a0,a0,27293
879034b0:	041101a7 	bal	87903b50 <stringserial>
879034b4:	00000000 	nop
879034b8:	01a02021 	move	a0,t5
879034bc:	01c02821 	move	a1,t6
879034c0:	00000000 	nop
879034c4:	00402021 	move	a0,v0
879034c8:	24050002 	li	a1,2
879034cc:	041100bc 	bal	879037c0 <Hexserial>
879034d0:	00000000 	nop
879034d4:	24040020 	li	a0,32
879034d8:	041101c9 	bal	87903c00 <tgt_putchar>
879034dc:	00000000 	nop
879034e0:	21ce0001 	addi	t6,t6,1
879034e4:	218c0001 	addi	t4,t4,1
879034e8:	018f082a 	slt	at,t4,t7
879034ec:	1420ffe3 	bnez	at,8790347c <func_i+0x78>
879034f0:	00000000 	nop
879034f4:	3c048790 	lui	a0,0x8790
879034f8:	24846aa0 	addiu	a0,a0,27296
879034fc:	04110194 	bal	87903b50 <stringserial>
87903500:	00000000 	nop
87903504:	1000fcde 	b	87902880 <mydebug_restart>
87903508:	00000000 	nop

8790350c <func_Q>:
func_Q():
8790350c:	03200008 	jr	t9
87903510:	00000000 	nop

87903514 <inputaddress>:
inputaddress():
87903514:	03e0b821 	move	s7,ra
87903518:	31c22000 	andi	v0,t6,0x2000
8790351c:	1040000a 	beqz	v0,87903548 <inputaddress+0x34>
87903520:	00000000 	nop
87903524:	3c048790 	lui	a0,0x8790
87903528:	24846aa3 	addiu	a0,a0,27299
8790352c:	04110188 	bal	87903b50 <stringserial>
87903530:	00000000 	nop
87903534:	24040008 	li	a0,8
87903538:	04110029 	bal	879035e0 <inputhex>
8790353c:	00000000 	nop
87903540:	10000008 	b	87903564 <inputaddress+0x50>
87903544:	00000000 	nop
87903548:	3c048790 	lui	a0,0x8790
8790354c:	24846aa7 	addiu	a0,a0,27303
87903550:	0411017f 	bal	87903b50 <stringserial>
87903554:	00000000 	nop
87903558:	24040010 	li	a0,16
8790355c:	0411005c 	bal	879036d0 <Inputhex>
87903560:	00000000 	nop
87903564:	00407821 	move	t7,v0
87903568:	02e00008 	jr	s7
8790356c:	00000000 	nop

87903570 <inputdata>:
inputdata():
87903570:	03e0b821 	move	s7,ra
87903574:	31c4000f 	andi	a0,t6,0xf
87903578:	24020008 	li	v0,8
8790357c:	1082000d 	beq	a0,v0,879035b4 <inputdata+0x44>
87903580:	00000000 	nop
87903584:	00042040 	sll	a0,a0,0x1
87903588:	24840030 	addiu	a0,a0,48
8790358c:	0411019c 	bal	87903c00 <tgt_putchar>
87903590:	00000000 	nop
87903594:	3c048790 	lui	a0,0x8790
87903598:	24846aac 	addiu	a0,a0,27308
8790359c:	0411016c 	bal	87903b50 <stringserial>
879035a0:	00000000 	nop
879035a4:	31c4000f 	andi	a0,t6,0xf
879035a8:	00042040 	sll	a0,a0,0x1
879035ac:	10000006 	b	879035c8 <inputdata+0x58>
879035b0:	00000000 	nop
879035b4:	3c048790 	lui	a0,0x8790
879035b8:	24846aaf 	addiu	a0,a0,27311
879035bc:	04110164 	bal	87903b50 <stringserial>
879035c0:	00000000 	nop
879035c4:	24040010 	li	a0,16
879035c8:	04110041 	bal	879036d0 <Inputhex>
879035cc:	00000000 	nop
879035d0:	0040c021 	move	t8,v0
879035d4:	02e00008 	jr	s7
879035d8:	00000000 	nop
879035dc:	00000000 	nop

879035e0 <inputhex>:
inputhex():
879035e0:	03e03821 	move	a3,ra
879035e4:	00802821 	move	a1,a0
879035e8:	00003021 	move	a2,zero
879035ec:	04110198 	bal	87903c50 <tgt_getchar>
879035f0:	00000000 	nop
879035f4:	24030071 	li	v1,113
879035f8:	10430024 	beq	v0,v1,8790368c <inputhex+0xac>
879035fc:	00000000 	nop
87903600:	24030020 	li	v1,32
87903604:	10620021 	beq	v1,v0,8790368c <inputhex+0xac>
87903608:	00000000 	nop
8790360c:	2403000d 	li	v1,13
87903610:	1062001e 	beq	v1,v0,8790368c <inputhex+0xac>
87903614:	00000000 	nop
87903618:	24030008 	li	v1,8
8790361c:	1062001e 	beq	v1,v0,87903698 <inputhex+0xb8>
87903620:	00000000 	nop
87903624:	24030078 	li	v1,120
87903628:	1062001b 	beq	v1,v0,87903698 <inputhex+0xb8>
8790362c:	00000000 	nop
87903630:	28430030 	slti	v1,v0,48
87903634:	1460ffed 	bnez	v1,879035ec <inputhex+0xc>
87903638:	00000000 	nop
8790363c:	2843003a 	slti	v1,v0,58
87903640:	14600008 	bnez	v1,87903664 <inputhex+0x84>
87903644:	00401821 	move	v1,v0
87903648:	28430061 	slti	v1,v0,97
8790364c:	1460ffe7 	bnez	v1,879035ec <inputhex+0xc>
87903650:	00000000 	nop
87903654:	28430067 	slti	v1,v0,103
87903658:	1060ffe4 	beqz	v1,879035ec <inputhex+0xc>
8790365c:	00401821 	move	v1,v0
87903660:	2042ffd9 	addi	v0,v0,-39
87903664:	2042ffd0 	addi	v0,v0,-48
87903668:	00063100 	sll	a2,a2,0x4
8790366c:	00463025 	or	a2,v0,a2
87903670:	00602021 	move	a0,v1
87903674:	04110162 	bal	87903c00 <tgt_putchar>
87903678:	00000000 	nop
8790367c:	20a5ffff 	addi	a1,a1,-1
87903680:	14a0ffda 	bnez	a1,879035ec <inputhex+0xc>
87903684:	00000000 	nop
87903688:	24030000 	li	v1,0
8790368c:	00c01021 	move	v0,a2
87903690:	00e00008 	jr	a3
87903694:	00000000 	nop
87903698:	00063102 	srl	a2,a2,0x4
8790369c:	24a50001 	addiu	a1,a1,1
879036a0:	24040008 	li	a0,8
879036a4:	04110156 	bal	87903c00 <tgt_putchar>
879036a8:	00000000 	nop
879036ac:	24040020 	li	a0,32
879036b0:	04110153 	bal	87903c00 <tgt_putchar>
879036b4:	00000000 	nop
879036b8:	24040008 	li	a0,8
879036bc:	04110150 	bal	87903c00 <tgt_putchar>
879036c0:	00000000 	nop
879036c4:	1000ffc9 	b	879035ec <inputhex+0xc>
879036c8:	00000000 	nop
879036cc:	00000000 	nop

879036d0 <Inputhex>:
Inputhex():
879036d0:	03e03821 	move	a3,ra
879036d4:	00802821 	move	a1,a0
879036d8:	00003021 	move	a2,zero
879036dc:	0411015c 	bal	87903c50 <tgt_getchar>
879036e0:	00000000 	nop
879036e4:	24030071 	li	v1,113
879036e8:	10430024 	beq	v0,v1,8790377c <Inputhex+0xac>
879036ec:	00000000 	nop
879036f0:	24030020 	li	v1,32
879036f4:	10620021 	beq	v1,v0,8790377c <Inputhex+0xac>
879036f8:	00000000 	nop
879036fc:	2403000d 	li	v1,13
87903700:	1062001e 	beq	v1,v0,8790377c <Inputhex+0xac>
87903704:	00000000 	nop
87903708:	24030008 	li	v1,8
8790370c:	1062001e 	beq	v1,v0,87903788 <Inputhex+0xb8>
87903710:	00000000 	nop
87903714:	24030078 	li	v1,120
87903718:	1062001b 	beq	v1,v0,87903788 <Inputhex+0xb8>
8790371c:	00000000 	nop
87903720:	28430030 	slti	v1,v0,48
87903724:	1460ffed 	bnez	v1,879036dc <Inputhex+0xc>
87903728:	00000000 	nop
8790372c:	2843003a 	slti	v1,v0,58
87903730:	14600008 	bnez	v1,87903754 <Inputhex+0x84>
87903734:	00401821 	move	v1,v0
87903738:	28430061 	slti	v1,v0,97
8790373c:	1460ffe7 	bnez	v1,879036dc <Inputhex+0xc>
87903740:	00000000 	nop
87903744:	28430067 	slti	v1,v0,103
87903748:	1060ffe4 	beqz	v1,879036dc <Inputhex+0xc>
8790374c:	00401821 	move	v1,v0
87903750:	2042ffd9 	addi	v0,v0,-39
87903754:	2042ffd0 	addi	v0,v0,-48
87903758:	00063100 	sll	a2,a2,0x4
8790375c:	00463025 	or	a2,v0,a2
87903760:	00602021 	move	a0,v1
87903764:	04110126 	bal	87903c00 <tgt_putchar>
87903768:	00000000 	nop
8790376c:	20a5ffff 	addi	a1,a1,-1
87903770:	14a0ffda 	bnez	a1,879036dc <Inputhex+0xc>
87903774:	00000000 	nop
87903778:	24030000 	li	v1,0
8790377c:	00c01021 	move	v0,a2
87903780:	00e00008 	jr	a3
87903784:	00000000 	nop
87903788:	00063102 	srl	a2,a2,0x4
8790378c:	24a50001 	addiu	a1,a1,1
87903790:	24040008 	li	a0,8
87903794:	0411011a 	bal	87903c00 <tgt_putchar>
87903798:	00000000 	nop
8790379c:	24040020 	li	a0,32
879037a0:	04110117 	bal	87903c00 <tgt_putchar>
879037a4:	00000000 	nop
879037a8:	24040008 	li	a0,8
879037ac:	04110114 	bal	87903c00 <tgt_putchar>
879037b0:	00000000 	nop
879037b4:	1000ffc9 	b	879036dc <Inputhex+0xc>
879037b8:	00000000 	nop
879037bc:	00000000 	nop

879037c0 <Hexserial>:
Hexserial():
879037c0:	00a03821 	move	a3,a1
879037c4:	03e03021 	move	a2,ra
879037c8:	00802821 	move	a1,a0
879037cc:	00071080 	sll	v0,a3,0x2
879037d0:	24010020 	li	at,32
879037d4:	00221023 	subu	v0,at,v0
879037d8:	00452804 	sllv	a1,a1,v0
879037dc:	24e7ffff 	addiu	a3,a3,-1
879037e0:	00050900 	sll	at,a1,0x4
879037e4:	00052702 	srl	a0,a1,0x1c
879037e8:	00812025 	or	a0,a0,at
879037ec:	00802821 	move	a1,a0
879037f0:	3084000f 	andi	a0,a0,0xf
879037f4:	3c028790 	lui	v0,0x8790
879037f8:	24426c58 	addiu	v0,v0,27736
879037fc:	00501021 	addu	v0,v0,s0
87903800:	00441021 	addu	v0,v0,a0
87903804:	90440000 	lbu	a0,0(v0)
87903808:	041100fd 	bal	87903c00 <tgt_putchar>
8790380c:	00000000 	nop
87903810:	14e0fff3 	bnez	a3,879037e0 <Hexserial+0x20>
87903814:	24e7ffff 	addiu	a3,a3,-1
87903818:	00c00008 	jr	a2
8790381c:	00000000 	nop

87903820 <mydebug_main>:
mydebug_main():
87903820:	03e0c821 	move	t9,ra
87903824:	1000fc12 	b	87902870 <mydebug_restarth>
87903828:	00000000 	nop

8790382c <tgt_setddr>:
tgt_setddr():
8790382c:	3c048790 	lui	a0,0x8790
87903830:	24846ab4 	addiu	a0,a0,27316
87903834:	041100c6 	bal	87903b50 <stringserial>
87903838:	00000000 	nop
8790383c:	0411ff68 	bal	879035e0 <inputhex>
87903840:	00000000 	nop
87903844:	00404021 	move	t0,v0
87903848:	3c03bfe7 	lui	v1,0xbfe7
8790384c:	34638030 	ori	v1,v1,0x8030
87903850:	ac680000 	sw	t0,0(v1)
87903854:	24040000 	li	a0,0
87903858:	04110105 	bal	87903c70 <initserial>
8790385c:	00000000 	nop
87903860:	0411015d 	bal	87903dd8 <ddr2_config_start>
87903864:	00000000 	nop
87903868:	1000fd13 	b	87902cb8 <d_end>
8790386c:	00000000 	nop

87903870 <bootnow>:
bootnow():
87903870:	3c048790 	lui	a0,0x8790
87903874:	24846ac6 	addiu	a0,a0,27334
87903878:	041100b5 	bal	87903b50 <stringserial>
8790387c:	00000000 	nop
87903880:	3c088790 	lui	t0,0x8790
87903884:	250838c8 	addiu	t0,t0,14536
87903888:	01104021 	addu	t0,t0,s0
8790388c:	3c098790 	lui	t1,0x8790
87903890:	25293a30 	addiu	t1,t1,14896
87903894:	01304821 	addu	t1,t1,s0
87903898:	3c0aa000 	lui	t2,0xa000
8790389c:	8d020000 	lw	v0,0(t0)
879038a0:	ad420000 	sw	v0,0(t2)
879038a4:	25080004 	addiu	t0,t0,4
879038a8:	254a0004 	addiu	t2,t2,4
879038ac:	0128082a 	slt	at,t1,t0
879038b0:	1020fffa 	beqz	at,8790389c <bootnow+0x2c>
879038b4:	00000000 	nop
879038b8:	3c08a000 	lui	t0,0xa000
879038bc:	01000008 	jr	t0
879038c0:	00000000 	nop
879038c4:	00000000 	nop
879038c8:	3c048790 	lui	a0,0x8790
879038cc:	24846ad1 	addiu	a0,a0,27345
879038d0:	3c028790 	lui	v0,0x8790
879038d4:	24423b50 	addiu	v0,v0,15184
879038d8:	00501021 	addu	v0,v0,s0
879038dc:	0040f809 	jalr	v0
879038e0:	00000000 	nop
879038e4:	3c048790 	lui	a0,0x8790
879038e8:	24840000 	addiu	a0,a0,0
879038ec:	00902821 	addu	a1,a0,s0
879038f0:	3c068796 	lui	a2,0x8796
879038f4:	24c6c010 	addiu	a2,a2,-16368
879038f8:	3c01a000 	lui	at,0xa000
879038fc:	00812025 	or	a0,a0,at
87903900:	3c01a000 	lui	at,0xa000
87903904:	00c13025 	or	a2,a2,at
87903908:	00c44823 	subu	t1,a2,a0
8790390c:	00094882 	srl	t1,t1,0x2
87903910:	00804021 	move	t0,a0
87903914:	00a04821 	move	t1,a1
87903918:	00c05021 	move	t2,a2
8790391c:	310bffff 	andi	t3,t0,0xffff
87903920:	1560000f 	bnez	t3,87903960 <bootnow+0xf0>
87903924:	00000000 	nop
87903928:	01002021 	move	a0,t0
8790392c:	3c028790 	lui	v0,0x8790
87903930:	24423bb0 	addiu	v0,v0,15280
87903934:	00501021 	addu	v0,v0,s0
87903938:	0040f809 	jalr	v0
8790393c:	00000000 	nop
87903940:	00000000 	nop
87903944:	2404000d 	li	a0,13
87903948:	3c028790 	lui	v0,0x8790
8790394c:	24423c00 	addiu	v0,v0,15360
87903950:	00501021 	addu	v0,v0,s0
87903954:	0040f809 	jalr	v0
87903958:	00000000 	nop
8790395c:	00000000 	nop
87903960:	8d2b0000 	lw	t3,0(t1)
87903964:	00000000 	nop
87903968:	ad0b0000 	sw	t3,0(t0)
8790396c:	25080004 	addiu	t0,t0,4
87903970:	25290004 	addiu	t1,t1,4
87903974:	1548ffe9 	bne	t2,t0,8790391c <bootnow+0xac>
87903978:	00000000 	nop
8790397c:	3c048790 	lui	a0,0x8790
87903980:	24846af4 	addiu	a0,a0,27380
87903984:	3c028790 	lui	v0,0x8790
87903988:	24423b50 	addiu	v0,v0,15184
8790398c:	00501021 	addu	v0,v0,s0
87903990:	0040f809 	jalr	v0
87903994:	00000000 	nop
87903998:	3c048796 	lui	a0,0x8796
8790399c:	2484c010 	addiu	a0,a0,-16368
879039a0:	3c068796 	lui	a2,0x8796
879039a4:	24c6d028 	addiu	a2,a2,-12248
879039a8:	ac800000 	sw	zero,0(a0)
879039ac:	14c4fffe 	bne	a2,a0,879039a8 <bootnow+0x138>
879039b0:	24840004 	addiu	a0,a0,4
879039b4:	3c048790 	lui	a0,0x8790
879039b8:	24846b0f 	addiu	a0,a0,27407
879039bc:	3c028790 	lui	v0,0x8790
879039c0:	24423b50 	addiu	v0,v0,15184
879039c4:	00501021 	addu	v0,v0,s0
879039c8:	0040f809 	jalr	v0
879039cc:	00000000 	nop
879039d0:	3c048790 	lui	a0,0x8790
879039d4:	24846b35 	addiu	a0,a0,27445
879039d8:	3c028790 	lui	v0,0x8790
879039dc:	24423b50 	addiu	v0,v0,15184
879039e0:	00501021 	addu	v0,v0,s0
879039e4:	0040f809 	jalr	v0
879039e8:	00000000 	nop
879039ec:	03a02021 	move	a0,sp
879039f0:	3c028790 	lui	v0,0x8790
879039f4:	24423bb0 	addiu	v0,v0,15280
879039f8:	00501021 	addu	v0,v0,s0
879039fc:	0040f809 	jalr	v0
87903a00:	00000000 	nop
87903a04:	00000000 	nop
87903a08:	24040000 	li	a0,0
87903a0c:	3c018796 	lui	at,0x8796
87903a10:	ac24d018 	sw	a0,-12264(at)
87903a14:	02402021 	move	a0,s2
87903a18:	00042502 	srl	a0,a0,0x14
87903a1c:	3c028790 	lui	v0,0x8790
87903a20:	244257dc 	addiu	v0,v0,22492
87903a24:	0040f809 	jalr	v0
87903a28:	00000000 	nop
87903a2c:	00000000 	nop

87903a30 <stuck>:
stuck():
87903a30:	1000ffff 	b	87903a30 <stuck>
87903a34:	00000000 	nop

87903a38 <CPU_TLBClear>:
CPU_TLBClear():
87903a38:	24070000 	li	a3,0
87903a3c:	24060000 	li	a2,0
87903a40:	40862800 	mtc0	a2,$5
87903a44:	40805000 	mtc0	zero,$10
87903a48:	40801000 	mtc0	zero,$2
87903a4c:	40801800 	mtc0	zero,$3
87903a50:	40870000 	mtc0	a3,$0
87903a54:	24e70001 	addiu	a3,a3,1
87903a58:	24060040 	li	a2,64
	...
87903a64:	42000002 	tlbwi
87903a68:	14e6fff6 	bne	a3,a2,87903a44 <CPU_TLBClear+0xc>
87903a6c:	00000000 	nop
87903a70:	03e00008 	jr	ra
87903a74:	00000000 	nop

87903a78 <CPU_TLBInit>:
CPU_TLBInit():
87903a78:	24070000 	li	a3,0
87903a7c:	3c0601ff 	lui	a2,0x1ff
87903a80:	34c6e000 	ori	a2,a2,0xe000
87903a84:	40862800 	mtc0	a2,$5
87903a88:	2401f000 	li	at,-4096
87903a8c:	00813024 	and	a2,a0,at
87903a90:	40865000 	mtc0	a2,$10
87903a94:	00803021 	move	a2,a0
87903a98:	00043182 	srl	a2,a0,0x6
87903a9c:	3c013fff 	lui	at,0x3fff
87903aa0:	3421ffc0 	ori	at,at,0xffc0
87903aa4:	00c13024 	and	a2,a2,at
87903aa8:	34c60017 	ori	a2,a2,0x17
87903aac:	40861000 	mtc0	a2,$2
87903ab0:	3c010004 	lui	at,0x4
87903ab4:	00c13021 	addu	a2,a2,at
87903ab8:	40861800 	mtc0	a2,$3
87903abc:	40870000 	mtc0	a3,$0
87903ac0:	24e70001 	addiu	a3,a3,1
87903ac4:	3c060200 	lui	a2,0x200
87903ac8:	00a62823 	subu	a1,a1,a2
87903acc:	00000000 	nop
87903ad0:	42000002 	tlbwi
87903ad4:	1ca0ffec 	bgtz	a1,87903a88 <CPU_TLBInit+0x10>
87903ad8:	00862021 	addu	a0,a0,a2
87903adc:	03e00008 	jr	ra
87903ae0:	00000000 	nop
87903ae4:	00000000 	nop

87903ae8 <suspend_resume>:
suspend_resume():
87903ae8:	3c08a01f 	lui	t0,0xa01f
87903aec:	3508fc00 	ori	t0,t0,0xfc00
87903af0:	8d1f0000 	lw	ra,0(t0)
87903af4:	8d1d0004 	lw	sp,4(t0)
87903af8:	8d1e0008 	lw	s8,8(t0)
87903afc:	8d1c000c 	lw	gp,12(t0)
87903b00:	8d100010 	lw	s0,16(t0)
87903b04:	8d110014 	lw	s1,20(t0)
87903b08:	8d120018 	lw	s2,24(t0)
87903b0c:	8d13001c 	lw	s3,28(t0)
87903b10:	8d140020 	lw	s4,32(t0)
87903b14:	8d150024 	lw	s5,36(t0)
87903b18:	8d160028 	lw	s6,40(t0)
87903b1c:	8d17002c 	lw	s7,44(t0)
87903b20:	8d1a0030 	lw	k0,48(t0)
87903b24:	8d1b0034 	lw	k1,52(t0)
87903b28:	8d020038 	lw	v0,56(t0)
87903b2c:	8d03003c 	lw	v1,60(t0)
87903b30:	8d090040 	lw	t1,64(t0)
87903b34:	40896000 	mtc0	t1,$12
87903b38:	8d090044 	lw	t1,68(t0)
87903b3c:	40892000 	mtc0	t1,$4
87903b40:	8d090048 	lw	t1,72(t0)
87903b44:	40892800 	mtc0	t1,$5
87903b48:	03e00008 	jr	ra
87903b4c:	00000000 	nop

87903b50 <stringserial>:
stringserial():
87903b50:	00000000 	nop
87903b54:	03e03021 	move	a2,ra
87903b58:	00902821 	addu	a1,a0,s0
87903b5c:	90a40000 	lbu	a0,0(a1)
87903b60:	10800005 	beqz	a0,87903b78 <stringserial+0x28>
87903b64:	00000000 	nop
87903b68:	04110025 	bal	87903c00 <tgt_putchar>
87903b6c:	24a50001 	addiu	a1,a1,1
87903b70:	1000fffb 	b	87903b60 <stringserial+0x10>
87903b74:	90a40000 	lbu	a0,0(a1)
87903b78:	00c00008 	jr	a2
87903b7c:	00000000 	nop

87903b80 <outstring>:
outstring():
87903b80:	03e03021 	move	a2,ra
87903b84:	00802821 	move	a1,a0
87903b88:	90a40000 	lbu	a0,0(a1)
87903b8c:	10800005 	beqz	a0,87903ba4 <outstring+0x24>
87903b90:	00000000 	nop
87903b94:	0411001a 	bal	87903c00 <tgt_putchar>
87903b98:	24a50001 	addiu	a1,a1,1
87903b9c:	1000fffb 	b	87903b8c <outstring+0xc>
87903ba0:	90a40000 	lbu	a0,0(a1)
87903ba4:	00c00008 	jr	a2
87903ba8:	00000000 	nop
87903bac:	00000000 	nop

87903bb0 <hexserial>:
hexserial():
87903bb0:	00000000 	nop
87903bb4:	03e03021 	move	a2,ra
87903bb8:	00802821 	move	a1,a0
87903bbc:	24070007 	li	a3,7
87903bc0:	00050900 	sll	at,a1,0x4
87903bc4:	00052702 	srl	a0,a1,0x1c
87903bc8:	00812025 	or	a0,a0,at
87903bcc:	00802821 	move	a1,a0
87903bd0:	3084000f 	andi	a0,a0,0xf
87903bd4:	3c028790 	lui	v0,0x8790
87903bd8:	24426c58 	addiu	v0,v0,27736
87903bdc:	00501021 	addu	v0,v0,s0
87903be0:	00441021 	addu	v0,v0,a0
87903be4:	04110006 	bal	87903c00 <tgt_putchar>
87903be8:	90440000 	lbu	a0,0(v0)
87903bec:	14e0fff4 	bnez	a3,87903bc0 <hexserial+0x10>
87903bf0:	24e7ffff 	addiu	a3,a3,-1
87903bf4:	00c00008 	jr	a2
87903bf8:	00000000 	nop
87903bfc:	00000000 	nop

87903c00 <tgt_putchar>:
tgt_putchar():
87903c00:	00000000 	nop
87903c04:	03e00821 	move	at,ra
87903c08:	3c02bfe4 	lui	v0,0xbfe4
87903c0c:	04110003 	bal	87903c1c <tgt_putchar+0x1c>
87903c10:	00000000 	nop
87903c14:	00200008 	jr	at
87903c18:	00000000 	nop
87903c1c:	90430005 	lbu	v1,5(v0)
87903c20:	30630020 	andi	v1,v1,0x20
87903c24:	1060fffd 	beqz	v1,87903c1c <tgt_putchar+0x1c>
87903c28:	00000000 	nop
87903c2c:	a0440000 	sb	a0,0(v0)
87903c30:	03e00008 	jr	ra
87903c34:	00000000 	nop

87903c38 <tgt_testchar>:
tgt_testchar():
87903c38:	3c02bfe4 	lui	v0,0xbfe4
87903c3c:	90430005 	lbu	v1,5(v0)
87903c40:	30620001 	andi	v0,v1,0x1
87903c44:	03e00008 	jr	ra
87903c48:	00000000 	nop
87903c4c:	00000000 	nop

87903c50 <tgt_getchar>:
tgt_getchar():
87903c50:	3c02bfe4 	lui	v0,0xbfe4
87903c54:	90430005 	lbu	v1,5(v0)
87903c58:	30630001 	andi	v1,v1,0x1
87903c5c:	1060fffd 	beqz	v1,87903c54 <tgt_getchar+0x4>
87903c60:	00000000 	nop
87903c64:	80420000 	lb	v0,0(v0)
87903c68:	03e00008 	jr	ra
87903c6c:	00000000 	nop

87903c70 <initserial>:
initserial():
87903c70:	03e00821 	move	at,ra
87903c74:	3c02bfe4 	lui	v0,0xbfe4
87903c78:	04110003 	bal	87903c88 <initserial+0x18>
87903c7c:	00000000 	nop
87903c80:	00200008 	jr	at
87903c84:	00000000 	nop
87903c88:	24030047 	li	v1,71
87903c8c:	a0430002 	sb	v1,2(v0)
87903c90:	24030080 	li	v1,128
87903c94:	a0430003 	sb	v1,3(v0)
87903c98:	2403001b 	li	v1,27
87903c9c:	a0430000 	sb	v1,0(v0)
87903ca0:	00031a02 	srl	v1,v1,0x8
87903ca4:	a0430001 	sb	v1,1(v0)
87903ca8:	24030003 	li	v1,3
87903cac:	a0430003 	sb	v1,3(v0)
87903cb0:	24030003 	li	v1,3
87903cb4:	a0430004 	sb	v1,4(v0)
87903cb8:	24030000 	li	v1,0
87903cbc:	a0430001 	sb	v1,1(v0)
87903cc0:	24030000 	li	v1,0
87903cc4:	a0430001 	sb	v1,1(v0)
87903cc8:	03e00008 	jr	ra
87903ccc:	00000000 	nop

87903cd0 <__main>:
87903cd0:	03e00008 00000000                       ........

87903cd8 <nullfunction>:
nullfunction():
87903cd8:	03e00008 	jr	ra
87903cdc:	00000000 	nop

87903ce0 <cache_init>:
cache_init():
87903ce0:	03e04821 	move	t1,ra

87903ce4 <cache_detect_4way>:
cache_detect_4way():
87903ce4:	400c8001 	mfc0	t4,$16,1
87903ce8:	3c020007 	lui	v0,0x7
87903cec:	01821024 	and	v0,t4,v0
87903cf0:	00025c02 	srl	t3,v0,0x10
87903cf4:	240d0800 	li	t5,2048
87903cf8:	000c1d82 	srl	v1,t4,0x16
87903cfc:	30630007 	andi	v1,v1,0x7
87903d00:	006d6804 	sllv	t5,t5,v1
87903d04:	016d6804 	sllv	t5,t5,t3
87903d08:	31820380 	andi	v0,t4,0x380
87903d0c:	000279c2 	srl	t7,v0,0x7
87903d10:	240e0800 	li	t6,2048
87903d14:	000c1b42 	srl	v1,t4,0xd
87903d18:	30630007 	andi	v1,v1,0x7
87903d1c:	006e7004 	sllv	t6,t6,v1
87903d20:	01ee7004 	sllv	t6,t6,t7
87903d24:	3c048000 	lui	a0,0x8000
87903d28:	000d2821 	addu	a1,zero,t5
87903d2c:	000e3021 	addu	a2,zero,t6

87903d30 <cache_init_d2way>:
cache_init_d2way():
87903d30:	4080e800 	mtc0	zero,$29
87903d34:	00041021 	addu	v0,zero,a0
87903d38:	00861821 	addu	v1,a0,a2
87903d3c:	0043382a 	slt	a3,v0,v1
87903d40:	10e00005 	beqz	a3,87903d58 <cache_flush_i2way>
87903d44:	00000000 	nop
87903d48:	4080e000 	mtc0	zero,$28
87903d4c:	bc490000 	cache	0x9,0(v0)
87903d50:	1000fffa 	b	87903d3c <cache_init_d2way+0xc>
87903d54:	24420020 	addiu	v0,v0,32

87903d58 <cache_flush_i2way>:
cache_flush_i2way():
87903d58:	00041021 	addu	v0,zero,a0
87903d5c:	00851821 	addu	v1,a0,a1
87903d60:	0043382a 	slt	a3,v0,v1
87903d64:	10e00004 	beqz	a3,87903d78 <cache_flush_d2way>
87903d68:	00000000 	nop
87903d6c:	bc400000 	cache	0x0,0(v0)
87903d70:	1000fffb 	b	87903d60 <cache_flush_i2way+0x8>
87903d74:	24420020 	addiu	v0,v0,32

87903d78 <cache_flush_d2way>:
cache_flush_d2way():
87903d78:	00041021 	addu	v0,zero,a0
87903d7c:	00861821 	addu	v1,a0,a2
87903d80:	0043382a 	slt	a3,v0,v1
87903d84:	10e00004 	beqz	a3,87903d98 <cache_init_finish>
87903d88:	00000000 	nop
87903d8c:	bc410000 	cache	0x1,0(v0)
87903d90:	1000fffb 	b	87903d80 <cache_flush_d2way+0x8>
87903d94:	24420020 	addiu	v0,v0,32

87903d98 <cache_init_finish>:
cache_init_finish():
87903d98:	01200008 	jr	t1
87903d9c:	00000000 	nop

87903da0 <ddr2_config>:
ddr2_config():
87903da0:	3c088790 	lui	t0,0x8790
87903da4:	25086c80 	addiu	t0,t0,27776
87903da8:	01104021 	addu	t0,t0,s0
87903dac:	2409001d 	li	t1,29
87903db0:	3c0aafff 	lui	t2,0xafff
87903db4:	354afe00 	ori	t2,t2,0xfe00

87903db8 <reg_write>:
reg_write():
87903db8:	8d050000 	lw	a1,0(t0)
87903dbc:	8d060004 	lw	a2,4(t0)
87903dc0:	ad450000 	sw	a1,0(t2)
87903dc4:	ad460004 	sw	a2,4(t2)
87903dc8:	2529ffff 	addiu	t1,t1,-1
87903dcc:	25080008 	addiu	t0,t0,8
87903dd0:	1520fff9 	bnez	t1,87903db8 <reg_write>
87903dd4:	254a0010 	addiu	t2,t2,16

87903dd8 <ddr2_config_start>:
ddr2_config_start():
87903dd8:	3c0aafff 	lui	t2,0xafff
87903ddc:	354afe00 	ori	t2,t2,0xfe00
87903de0:	3c088790 	lui	t0,0x8790
87903de4:	25086c9c 	addiu	t0,t0,27804
87903de8:	01104021 	addu	t0,t0,s0
87903dec:	8d050000 	lw	a1,0(t0)
87903df0:	ad450034 	sw	a1,52(t2)
87903df4:	8d050000 	lw	a1,0(t0)
87903df8:	34a50100 	ori	a1,a1,0x100
87903dfc:	ad450034 	sw	a1,52(t2)
87903e00:	8d450010 	lw	a1,16(t2)
87903e04:	8d460014 	lw	a2,20(t2)
87903e08:	30a50001 	andi	a1,a1,0x1
87903e0c:	10a0fffc 	beqz	a1,87903e00 <ddr2_config_start+0x28>
87903e10:	00000000 	nop
87903e14:	854500f2 	lh	a1,242(t2)
87903e18:	2ca50005 	sltiu	a1,a1,5
87903e1c:	10a00006 	beqz	a1,87903e38 <ddr2_config_start+0x60>
87903e20:	00000000 	nop
87903e24:	8d4500f4 	lw	a1,244(t2)
87903e28:	24a50004 	addiu	a1,a1,4
87903e2c:	ad4500f4 	sw	a1,244(t2)
87903e30:	1000ffee 	b	87903dec <ddr2_config_start+0x14>
87903e34:	00000000 	nop
87903e38:	03e00008 	jr	ra
87903e3c:	00000000 	nop
	...

87904000 <memcpy>:
memcpy():
87904000:	00a4102b 	sltu	v0,a1,a0
87904004:	1440000b 	bnez	v0,87904034 <memcpy+0x34>
87904008:	00804021 	move	t0,a0
8790400c:	18c00007 	blez	a2,8790402c <memcpy+0x2c>
87904010:	00003821 	move	a3,zero
87904014:	00a71021 	addu	v0,a1,a3
87904018:	90440000 	lbu	a0,0(v0)
8790401c:	01071821 	addu	v1,t0,a3
87904020:	24e70001 	addiu	a3,a3,1
87904024:	14e6fffb 	bne	a3,a2,87904014 <memcpy+0x14>
87904028:	a0640000 	sb	a0,0(v1)
8790402c:	03e00008 	jr	ra
87904030:	01001021 	move	v0,t0
87904034:	18c0fffd 	blez	a2,8790402c <memcpy+0x2c>
87904038:	00861821 	addu	v1,a0,a2
8790403c:	00a62821 	addu	a1,a1,a2
87904040:	00663023 	subu	a2,v1,a2
87904044:	24a5ffff 	addiu	a1,a1,-1
87904048:	90a20000 	lbu	v0,0(a1)
8790404c:	2463ffff 	addiu	v1,v1,-1
87904050:	1466fffc 	bne	v1,a2,87904044 <memcpy+0x44>
87904054:	a0620000 	sb	v0,0(v1)
87904058:	03e00008 	jr	ra
8790405c:	01001021 	move	v0,t0

87904060 <free>:
free():
87904060:	3c098796 	lui	t1,0x8796
87904064:	8d25c018 	lw	a1,-16360(t1)
87904068:	2487fff8 	addiu	a3,a0,-8
8790406c:	00a7402b 	sltu	t0,a1,a3
87904070:	11000010 	beqz	t0,879040b4 <free+0x54>
87904074:	00000000 	nop
87904078:	8ca30000 	lw	v1,0(a1)
8790407c:	00e3102b 	sltu	v0,a3,v1
87904080:	1440000e 	bnez	v0,879040bc <free+0x5c>
87904084:	00000000 	nop
87904088:	00a3102b 	sltu	v0,a1,v1
8790408c:	14400005 	bnez	v0,879040a4 <free+0x44>
87904090:	00e3302b 	sltu	a2,a3,v1
87904094:	15000009 	bnez	t0,879040bc <free+0x5c>
87904098:	00000000 	nop
8790409c:	14c00007 	bnez	a2,879040bc <free+0x5c>
879040a0:	00000000 	nop
879040a4:	00602821 	move	a1,v1
879040a8:	00a7402b 	sltu	t0,a1,a3
879040ac:	1500fff2 	bnez	t0,87904078 <free+0x18>
879040b0:	00000000 	nop
879040b4:	09e41022 	j	87904088 <free+0x28>
879040b8:	8ca30000 	lw	v1,0(a1)
879040bc:	8ce60004 	lw	a2,4(a3)
879040c0:	000610c0 	sll	v0,a2,0x3
879040c4:	00e21021 	addu	v0,a3,v0
879040c8:	10430009 	beq	v0,v1,879040f0 <free+0x90>
879040cc:	00000000 	nop
879040d0:	8ca60004 	lw	a2,4(a1)
879040d4:	000610c0 	sll	v0,a2,0x3
879040d8:	00a21021 	addu	v0,a1,v0
879040dc:	1047000d 	beq	v0,a3,87904114 <free+0xb4>
879040e0:	ac83fff8 	sw	v1,-8(a0)
879040e4:	aca70000 	sw	a3,0(a1)
879040e8:	03e00008 	jr	ra
879040ec:	ad25c018 	sw	a1,-16360(t1)
879040f0:	8c620004 	lw	v0,4(v1)
879040f4:	8c630000 	lw	v1,0(v1)
879040f8:	00461021 	addu	v0,v0,a2
879040fc:	ace20004 	sw	v0,4(a3)
87904100:	8ca60004 	lw	a2,4(a1)
87904104:	000610c0 	sll	v0,a2,0x3
87904108:	00a21021 	addu	v0,a1,v0
8790410c:	1447fff5 	bne	v0,a3,879040e4 <free+0x84>
87904110:	ac83fff8 	sw	v1,-8(a0)
87904114:	8ce20004 	lw	v0,4(a3)
87904118:	8c83fff8 	lw	v1,-8(a0)
8790411c:	00461021 	addu	v0,v0,a2
87904120:	aca20004 	sw	v0,4(a1)
87904124:	aca30000 	sw	v1,0(a1)
87904128:	03e00008 	jr	ra
8790412c:	ad25c018 	sw	a1,-16360(t1)

87904130 <malloc>:
malloc():
87904130:	27bdffd0 	addiu	sp,sp,-48
87904134:	afb10018 	sw	s1,24(sp)
87904138:	3c118796 	lui	s1,0x8796
8790413c:	24840007 	addiu	a0,a0,7
87904140:	8e26c018 	lw	a2,-16360(s1)
87904144:	000420c2 	srl	a0,a0,0x3
87904148:	afb00014 	sw	s0,20(sp)
8790414c:	afbf002c 	sw	ra,44(sp)
87904150:	afb50028 	sw	s5,40(sp)
87904154:	afb40024 	sw	s4,36(sp)
87904158:	afb30020 	sw	s3,32(sp)
8790415c:	afb2001c 	sw	s2,28(sp)
87904160:	10c00034 	beqz	a2,87904234 <malloc+0x104>
87904164:	24900001 	addiu	s0,a0,1
87904168:	8cc50000 	lw	a1,0(a2)
8790416c:	8ca40004 	lw	a0,4(a1)
87904170:	0090102b 	sltu	v0,a0,s0
87904174:	1040000f 	beqz	v0,879041b4 <malloc+0x84>
87904178:	2602007f 	addiu	v0,s0,127
8790417c:	000211c2 	srl	v0,v0,0x7
87904180:	00029a80 	sll	s3,v0,0xa
87904184:	000291c0 	sll	s2,v0,0x7
87904188:	3c158796 	lui	s5,0x8796
8790418c:	3c148790 	lui	s4,0x8790
87904190:	8e22c018 	lw	v0,-16360(s1)
87904194:	10a2001b 	beq	a1,v0,87904204 <malloc+0xd4>
87904198:	00a01821 	move	v1,a1
8790419c:	8c650000 	lw	a1,0(v1)
879041a0:	8ca40004 	lw	a0,4(a1)
879041a4:	0090102b 	sltu	v0,a0,s0
879041a8:	1440fffa 	bnez	v0,87904194 <malloc+0x64>
879041ac:	8e22c018 	lw	v0,-16360(s1)
879041b0:	00603021 	move	a2,v1
879041b4:	12040010 	beq	s0,a0,879041f8 <malloc+0xc8>
879041b8:	00901023 	subu	v0,a0,s0
879041bc:	000218c0 	sll	v1,v0,0x3
879041c0:	aca20004 	sw	v0,4(a1)
879041c4:	00a32821 	addu	a1,a1,v1
879041c8:	acb00004 	sw	s0,4(a1)
879041cc:	ae26c018 	sw	a2,-16360(s1)
879041d0:	24a20008 	addiu	v0,a1,8
879041d4:	8fbf002c 	lw	ra,44(sp)
879041d8:	8fb50028 	lw	s5,40(sp)
879041dc:	8fb40024 	lw	s4,36(sp)
879041e0:	8fb30020 	lw	s3,32(sp)
879041e4:	8fb2001c 	lw	s2,28(sp)
879041e8:	8fb10018 	lw	s1,24(sp)
879041ec:	8fb00014 	lw	s0,20(sp)
879041f0:	03e00008 	jr	ra
879041f4:	27bd0030 	addiu	sp,sp,48
879041f8:	8ca20000 	lw	v0,0(a1)
879041fc:	09e41073 	j	879041cc <malloc+0x9c>
87904200:	acc20000 	sw	v0,0(a2)
87904204:	8e8370e0 	lw	v1,28896(s4)
87904208:	00731021 	addu	v0,v1,s3
8790420c:	24640008 	addiu	a0,v1,8
87904210:	10600006 	beqz	v1,8790422c <malloc+0xfc>
87904214:	ae8270e0 	sw	v0,28896(s4)
87904218:	0de41018 	jal	87904060 <free>
8790421c:	ac720004 	sw	s2,4(v1)
87904220:	8ea3c018 	lw	v1,-16360(s5)
87904224:	1460ffdd 	bnez	v1,8790419c <malloc+0x6c>
87904228:	00000000 	nop
8790422c:	09e41075 	j	879041d4 <malloc+0xa4>
87904230:	00001021 	move	v0,zero
87904234:	3c028796 	lui	v0,0x8796
87904238:	2443c010 	addiu	v1,v0,-16368
8790423c:	ac40c014 	sw	zero,-16364(v0)
87904240:	ae23c018 	sw	v1,-16360(s1)
87904244:	ac43c010 	sw	v1,-16368(v0)
87904248:	09e4105a 	j	87904168 <malloc+0x38>
8790424c:	00603021 	move	a2,v1

87904250 <huft_free>:
huft_free():
87904250:	27bdffe8 	addiu	sp,sp,-24
87904254:	afbf0014 	sw	ra,20(sp)
87904258:	10800007 	beqz	a0,87904278 <huft_free+0x28>
8790425c:	afb00010 	sw	s0,16(sp)
87904260:	2482fff8 	addiu	v0,a0,-8
87904264:	00402021 	move	a0,v0
87904268:	0de41018 	jal	87904060 <free>
8790426c:	8c500004 	lw	s0,4(v0)
87904270:	1600fffb 	bnez	s0,87904260 <huft_free+0x10>
87904274:	02002021 	move	a0,s0
87904278:	8fbf0014 	lw	ra,20(sp)
8790427c:	00001021 	move	v0,zero
87904280:	8fb00010 	lw	s0,16(sp)
87904284:	03e00008 	jr	ra
87904288:	27bd0018 	addiu	sp,sp,24

8790428c <huft_build>:
huft_build():
8790428c:	27bdfa30 	addiu	sp,sp,-1488
87904290:	27ab0058 	addiu	t3,sp,88
87904294:	8fa805e8 	lw	t0,1512(sp)
87904298:	afbf05cc 	sw	ra,1484(sp)
8790429c:	afbe05c8 	sw	s8,1480(sp)
879042a0:	afb705c4 	sw	s7,1476(sp)
879042a4:	afb605c0 	sw	s6,1472(sp)
879042a8:	afb505bc 	sw	s5,1468(sp)
879042ac:	afb405b8 	sw	s4,1464(sp)
879042b0:	afb305b4 	sw	s3,1460(sp)
879042b4:	afb205b0 	sw	s2,1456(sp)
879042b8:	afb105ac 	sw	s1,1452(sp)
879042bc:	afb005a8 	sw	s0,1448(sp)
879042c0:	00806021 	move	t4,a0
879042c4:	afa605d8 	sw	a2,1496(sp)
879042c8:	afa705dc 	sw	a3,1500(sp)
879042cc:	01601021 	move	v0,t3
879042d0:	27aa009c 	addiu	t2,sp,156
879042d4:	a0400000 	sb	zero,0(v0)
879042d8:	24420001 	addiu	v0,v0,1
879042dc:	144afffd 	bne	v0,t2,879042d4 <huft_build+0x48>
879042e0:	00a0b821 	move	s7,a1
879042e4:	01803021 	move	a2,t4
879042e8:	8cc30000 	lw	v1,0(a2)
879042ec:	27a20010 	addiu	v0,sp,16
879042f0:	00031880 	sll	v1,v1,0x2
879042f4:	00431821 	addu	v1,v0,v1
879042f8:	8c620048 	lw	v0,72(v1)
879042fc:	26f7ffff 	addiu	s7,s7,-1
87904300:	24420001 	addiu	v0,v0,1
87904304:	24c60004 	addiu	a2,a2,4
87904308:	16e0fff7 	bnez	s7,879042e8 <huft_build+0x5c>
8790430c:	ac620048 	sw	v0,72(v1)
87904310:	8fa20058 	lw	v0,88(sp)
87904314:	10450110 	beq	v0,a1,87904758 <huft_build+0x4cc>
87904318:	27a3005c 	addiu	v1,sp,92
8790431c:	8d140000 	lw	s4,0(t0)
87904320:	24040001 	li	a0,1
87904324:	24060011 	li	a2,17
87904328:	8c620000 	lw	v0,0(v1)
8790432c:	14400004 	bnez	v0,87904340 <huft_build+0xb4>
87904330:	24630004 	addiu	v1,v1,4
87904334:	24840001 	addiu	a0,a0,1
87904338:	1486fffb 	bne	a0,a2,87904328 <huft_build+0x9c>
8790433c:	00000000 	nop
87904340:	0284102b 	sltu	v0,s4,a0
87904344:	0082a00b 	movn	s4,a0,v0
87904348:	afa40588 	sw	a0,1416(sp)
8790434c:	27a30098 	addiu	v1,sp,152
87904350:	24090010 	li	t1,16
87904354:	8c620000 	lw	v0,0(v1)
87904358:	14400004 	bnez	v0,8790436c <huft_build+0xe0>
8790435c:	2463fffc 	addiu	v1,v1,-4
87904360:	2529ffff 	addiu	t1,t1,-1
87904364:	1520fffb 	bnez	t1,87904354 <huft_build+0xc8>
87904368:	00000000 	nop
8790436c:	0134102b 	sltu	v0,t1,s4
87904370:	0122a00b 	movn	s4,t1,v0
87904374:	0089182b 	sltu	v1,a0,t1
87904378:	24020001 	li	v0,1
8790437c:	ad140000 	sw	s4,0(t0)
87904380:	10600014 	beqz	v1,879043d4 <huft_build+0x148>
87904384:	00823004 	sllv	a2,v0,a0
87904388:	00041080 	sll	v0,a0,0x2
8790438c:	27a70010 	addiu	a3,sp,16
87904390:	00e21021 	addu	v0,a3,v0
87904394:	8c430048 	lw	v1,72(v0)
87904398:	00c33023 	subu	a2,a2,v1
8790439c:	04c000e1 	bltz	a2,87904724 <huft_build+0x498>
879043a0:	24820001 	addiu	v0,a0,1
879043a4:	00021080 	sll	v0,v0,0x2
879043a8:	01623821 	addu	a3,t3,v0
879043ac:	09e410f1 	j	879043c4 <huft_build+0x138>
879043b0:	00801821 	move	v1,a0
879043b4:	8ce20000 	lw	v0,0(a3)
879043b8:	00c23023 	subu	a2,a2,v0
879043bc:	04c000d9 	bltz	a2,87904724 <huft_build+0x498>
879043c0:	24e70004 	addiu	a3,a3,4
879043c4:	24630001 	addiu	v1,v1,1
879043c8:	0069102b 	sltu	v0,v1,t1
879043cc:	1440fff9 	bnez	v0,879043b4 <huft_build+0x128>
879043d0:	00063040 	sll	a2,a2,0x1
879043d4:	00091080 	sll	v0,t1,0x2
879043d8:	27a70010 	addiu	a3,sp,16
879043dc:	00e21821 	addu	v1,a3,v0
879043e0:	8c620048 	lw	v0,72(v1)
879043e4:	00c23023 	subu	a2,a2,v0
879043e8:	04c000ce 	bltz	a2,87904724 <huft_build+0x498>
879043ec:	afa60570 	sw	a2,1392(sp)
879043f0:	00c21021 	addu	v0,a2,v0
879043f4:	2528ffff 	addiu	t0,t1,-1
879043f8:	ac620048 	sw	v0,72(v1)
879043fc:	1100000b 	beqz	t0,8790442c <huft_build+0x1a0>
87904400:	afa000a0 	sw	zero,160(sp)
87904404:	00003821 	move	a3,zero
87904408:	00003021 	move	a2,zero
8790440c:	01661021 	addu	v0,t3,a2
87904410:	8c430004 	lw	v1,4(v0)
87904414:	2508ffff 	addiu	t0,t0,-1
87904418:	01461021 	addu	v0,t2,a2
8790441c:	00e33821 	addu	a3,a3,v1
87904420:	ac470008 	sw	a3,8(v0)
87904424:	1500fff9 	bnez	t0,8790440c <huft_build+0x180>
87904428:	24c60004 	addiu	a2,a2,4
8790442c:	01803821 	move	a3,t4
87904430:	00003021 	move	a2,zero
87904434:	8ce30000 	lw	v1,0(a3)
87904438:	27ac0010 	addiu	t4,sp,16
8790443c:	00031080 	sll	v0,v1,0x2
87904440:	24e70004 	addiu	a3,a3,4
87904444:	10600007 	beqz	v1,87904464 <huft_build+0x1d8>
87904448:	01824021 	addu	t0,t4,v0
8790444c:	8d02008c 	lw	v0,140(t0)
87904450:	00021880 	sll	v1,v0,0x2
87904454:	01831821 	addu	v1,t4,v1
87904458:	24420001 	addiu	v0,v0,1
8790445c:	ad02008c 	sw	v0,140(t0)
87904460:	ac6600d0 	sw	a2,208(v1)
87904464:	24c60001 	addiu	a2,a2,1
87904468:	00c5102b 	sltu	v0,a2,a1
8790446c:	1440fff1 	bnez	v0,87904434 <huft_build+0x1a8>
87904470:	0124102a 	slt	v0,t1,a0
87904474:	14400139 	bnez	v0,8790495c <huft_build+0x6d0>
87904478:	24820001 	addiu	v0,a0,1
8790447c:	00021080 	sll	v0,v0,0x2
87904480:	3c078796 	lui	a3,0x8796
87904484:	27a300e0 	addiu	v1,sp,224
87904488:	01621021 	addu	v0,t3,v0
8790448c:	00052880 	sll	a1,a1,0x2
87904490:	00042080 	sll	a0,a0,0x2
87904494:	8ce7c040 	lw	a3,-16320(a3)
87904498:	00143023 	negu	a2,s4
8790449c:	00652821 	addu	a1,v1,a1
879044a0:	afa20578 	sw	v0,1400(sp)
879044a4:	01645821 	addu	t3,t3,a0
879044a8:	afa30574 	sw	v1,1396(sp)
879044ac:	2402ffff 	li	v0,-1
879044b0:	01341823 	subu	v1,t1,s4
879044b4:	afa6056c 	sw	a2,1388(sp)
879044b8:	afa70580 	sw	a3,1408(sp)
879044bc:	afa0009c 	sw	zero,156(sp)
879044c0:	afa00018 	sw	zero,24(sp)
879044c4:	afa50590 	sw	a1,1424(sp)
879044c8:	afab057c 	sw	t3,1404(sp)
879044cc:	00c06021 	move	t4,a2
879044d0:	afa20560 	sw	v0,1376(sp)
879044d4:	00004021 	move	t0,zero
879044d8:	afa00584 	sw	zero,1412(sp)
879044dc:	afa3059c 	sw	v1,1436(sp)
879044e0:	8fa40588 	lw	a0,1416(sp)
879044e4:	8fa6057c 	lw	a2,1404(sp)
879044e8:	2482ffff 	addiu	v0,a0,-1
879044ec:	24050001 	li	a1,1
879044f0:	8cc60000 	lw	a2,0(a2)
879044f4:	00451004 	sllv	v0,a1,v0
879044f8:	00943823 	subu	a3,a0,s4
879044fc:	afa20564 	sw	v0,1380(sp)
87904500:	afa6058c 	sw	a2,1420(sp)
87904504:	afa70598 	sw	a3,1432(sp)
87904508:	8fa5058c 	lw	a1,1420(sp)
8790450c:	2406ffff 	li	a2,-1
87904510:	24a5ffff 	addiu	a1,a1,-1
87904514:	10a60103 	beq	a1,a2,87904924 <huft_build+0x698>
87904518:	afa50568 	sw	a1,1384(sp)
8790451c:	8fa70598 	lw	a3,1432(sp)
87904520:	8fa2059c 	lw	v0,1436(sp)
87904524:	0194b021 	addu	s6,t4,s4
87904528:	00051827 	nor	v1,zero,a1
8790452c:	02c0a821 	move	s5,s6
87904530:	0180f021 	move	s8,t4
87904534:	00ec9023 	subu	s2,a3,t4
87904538:	004c9823 	subu	s3,v0,t4
8790453c:	09e41176 	j	879045d8 <huft_build+0x34c>
87904540:	afa30594 	sw	v1,1428(sp)
87904544:	02408021 	move	s0,s2
87904548:	24020001 	li	v0,1
8790454c:	02021004 	sllv	v0,v0,s0
87904550:	24440001 	addiu	a0,v0,1
87904554:	000420c0 	sll	a0,a0,0x3
87904558:	afa905a0 	sw	t1,1440(sp)
8790455c:	afaa05a4 	sw	t2,1444(sp)
87904560:	0de4104c 	jal	87904130 <malloc>
87904564:	afa20584 	sw	v0,1412(sp)
87904568:	8fa905a0 	lw	t1,1440(sp)
8790456c:	00402821 	move	a1,v0
87904570:	10400049 	beqz	v0,87904698 <huft_build+0x40c>
87904574:	8faa05a4 	lw	t2,1444(sp)
87904578:	8fa60580 	lw	a2,1408(sp)
8790457c:	00111080 	sll	v0,s1,0x2
87904580:	27a70010 	addiu	a3,sp,16
87904584:	24c30001 	addiu	v1,a2,1
87904588:	00e23021 	addu	a2,a3,v0
8790458c:	8fa20584 	lw	v0,1412(sp)
87904590:	8fac05e4 	lw	t4,1508(sp)
87904594:	24a80008 	addiu	t0,a1,8
87904598:	00621821 	addu	v1,v1,v0
8790459c:	ad880000 	sw	t0,0(t4)
879045a0:	afa30580 	sw	v1,1408(sp)
879045a4:	aca00004 	sw	zero,4(a1)
879045a8:	1620004c 	bnez	s1,879046dc <huft_build+0x450>
879045ac:	acc80008 	sw	t0,8(a2)
879045b0:	afa00560 	sw	zero,1376(sp)
879045b4:	24a50004 	addiu	a1,a1,4
879045b8:	afa505e4 	sw	a1,1508(sp)
879045bc:	8fa5056c 	lw	a1,1388(sp)
879045c0:	02c06021 	move	t4,s6
879045c4:	02b4a821 	addu	s5,s5,s4
879045c8:	03d4f021 	addu	s8,s8,s4
879045cc:	02459021 	addu	s2,s2,a1
879045d0:	02659821 	addu	s3,s3,a1
879045d4:	02d4b021 	addu	s6,s6,s4
879045d8:	8fa60588 	lw	a2,1416(sp)
879045dc:	02a6102a 	slt	v0,s5,a2
879045e0:	1040006d 	beqz	v0,87904798 <huft_build+0x50c>
879045e4:	8fa4058c 	lw	a0,1420(sp)
879045e8:	240c0001 	li	t4,1
879045ec:	024c1804 	sllv	v1,t4,s2
879045f0:	8fa50560 	lw	a1,1376(sp)
879045f4:	0083102b 	sltu	v0,a0,v1
879045f8:	1040ffd2 	beqz	v0,87904544 <huft_build+0x2b8>
879045fc:	24b10001 	addiu	s1,a1,1
87904600:	0274102b 	sltu	v0,s3,s4
87904604:	02603021 	move	a2,s3
87904608:	0282300a 	movz	a2,s4,v0
8790460c:	26500001 	addiu	s0,s2,1
87904610:	0206102b 	sltu	v0,s0,a2
87904614:	1040ffcc 	beqz	v0,87904548 <huft_build+0x2bc>
87904618:	8fa70594 	lw	a3,1428(sp)
8790461c:	8fac0578 	lw	t4,1400(sp)
87904620:	00671821 	addu	v1,v1,a3
87904624:	8d840000 	lw	a0,0(t4)
87904628:	00031840 	sll	v1,v1,0x1
8790462c:	0083102b 	sltu	v0,a0,v1
87904630:	1040ffc5 	beqz	v0,87904548 <huft_build+0x2bc>
87904634:	01802821 	move	a1,t4
87904638:	09e41195 	j	87904654 <huft_build+0x3c8>
8790463c:	00641023 	subu	v0,v1,a0
87904640:	8ca40000 	lw	a0,0(a1)
87904644:	0083102b 	sltu	v0,a0,v1
87904648:	1040ffc0 	beqz	v0,8790454c <huft_build+0x2c0>
8790464c:	24020001 	li	v0,1
87904650:	00641023 	subu	v0,v1,a0
87904654:	26100001 	addiu	s0,s0,1
87904658:	00021840 	sll	v1,v0,0x1
8790465c:	0206102b 	sltu	v0,s0,a2
87904660:	1440fff7 	bnez	v0,87904640 <huft_build+0x3b4>
87904664:	24a50004 	addiu	a1,a1,4
87904668:	24020001 	li	v0,1
8790466c:	02021004 	sllv	v0,v0,s0
87904670:	24440001 	addiu	a0,v0,1
87904674:	000420c0 	sll	a0,a0,0x3
87904678:	afa905a0 	sw	t1,1440(sp)
8790467c:	afaa05a4 	sw	t2,1444(sp)
87904680:	0de4104c 	jal	87904130 <malloc>
87904684:	afa20584 	sw	v0,1412(sp)
87904688:	8fa905a0 	lw	t1,1440(sp)
8790468c:	00402821 	move	a1,v0
87904690:	1440ffb9 	bnez	v0,87904578 <huft_build+0x2ec>
87904694:	8faa05a4 	lw	t2,1444(sp)
87904698:	8fa40580 	lw	a0,1408(sp)
8790469c:	3c038796 	lui	v1,0x8796
879046a0:	16200081 	bnez	s1,879048a8 <huft_build+0x61c>
879046a4:	ac64c040 	sw	a0,-16320(v1)
879046a8:	24020003 	li	v0,3
879046ac:	8fbf05cc 	lw	ra,1484(sp)
879046b0:	8fbe05c8 	lw	s8,1480(sp)
879046b4:	8fb705c4 	lw	s7,1476(sp)
879046b8:	8fb605c0 	lw	s6,1472(sp)
879046bc:	8fb505bc 	lw	s5,1468(sp)
879046c0:	8fb405b8 	lw	s4,1464(sp)
879046c4:	8fb305b4 	lw	s3,1460(sp)
879046c8:	8fb205b0 	lw	s2,1456(sp)
879046cc:	8fb105ac 	lw	s1,1452(sp)
879046d0:	8fb005a8 	lw	s0,1448(sp)
879046d4:	03e00008 	jr	ra
879046d8:	27bd05d0 	addiu	sp,sp,1488
879046dc:	8fa30560 	lw	v1,1376(sp)
879046e0:	27a40010 	addiu	a0,sp,16
879046e4:	00031080 	sll	v0,v1,0x2
879046e8:	00821021 	addu	v0,a0,v0
879046ec:	8c440008 	lw	a0,8(v0)
879046f0:	26030010 	addiu	v1,s0,16
879046f4:	03d71006 	srlv	v0,s7,s8
879046f8:	a3a30010 	sb	v1,16(sp)
879046fc:	a3b40011 	sb	s4,17(sp)
87904700:	000210c0 	sll	v0,v0,0x3
87904704:	00822021 	addu	a0,a0,v0
87904708:	8fa20010 	lw	v0,16(sp)
8790470c:	acd7008c 	sw	s7,140(a2)
87904710:	afa80014 	sw	t0,20(sp)
87904714:	ac820000 	sw	v0,0(a0)
87904718:	ac880004 	sw	t0,4(a0)
8790471c:	09e4116d 	j	879045b4 <huft_build+0x328>
87904720:	afb10560 	sw	s1,1376(sp)
87904724:	24020002 	li	v0,2
87904728:	8fbf05cc 	lw	ra,1484(sp)
8790472c:	8fbe05c8 	lw	s8,1480(sp)
87904730:	8fb705c4 	lw	s7,1476(sp)
87904734:	8fb605c0 	lw	s6,1472(sp)
87904738:	8fb505bc 	lw	s5,1468(sp)
8790473c:	8fb405b8 	lw	s4,1464(sp)
87904740:	8fb305b4 	lw	s3,1460(sp)
87904744:	8fb205b0 	lw	s2,1456(sp)
87904748:	8fb105ac 	lw	s1,1452(sp)
8790474c:	8fb005a8 	lw	s0,1448(sp)
87904750:	03e00008 	jr	ra
87904754:	27bd05d0 	addiu	sp,sp,1488
87904758:	8fbf05cc 	lw	ra,1484(sp)
8790475c:	8fa305e4 	lw	v1,1508(sp)
87904760:	00001021 	move	v0,zero
87904764:	8fbe05c8 	lw	s8,1480(sp)
87904768:	8fb705c4 	lw	s7,1476(sp)
8790476c:	8fb605c0 	lw	s6,1472(sp)
87904770:	8fb505bc 	lw	s5,1468(sp)
87904774:	8fb405b8 	lw	s4,1464(sp)
87904778:	8fb305b4 	lw	s3,1460(sp)
8790477c:	8fb205b0 	lw	s2,1456(sp)
87904780:	8fb105ac 	lw	s1,1452(sp)
87904784:	8fb005a8 	lw	s0,1448(sp)
87904788:	ac600000 	sw	zero,0(v1)
8790478c:	ad000000 	sw	zero,0(t0)
87904790:	03e00008 	jr	ra
87904794:	27bd05d0 	addiu	sp,sp,1488
87904798:	8fa70574 	lw	a3,1396(sp)
8790479c:	8fa30590 	lw	v1,1424(sp)
879047a0:	00cc2823 	subu	a1,a2,t4
879047a4:	00e3102b 	sltu	v0,a3,v1
879047a8:	1040003d 	beqz	v0,879048a0 <huft_build+0x614>
879047ac:	30ae00ff 	andi	t6,a1,0xff
879047b0:	8fa40574 	lw	a0,1396(sp)
879047b4:	8fa605d8 	lw	a2,1496(sp)
879047b8:	8c830000 	lw	v1,0(a0)
879047bc:	0066102b 	sltu	v0,v1,a2
879047c0:	1040003d 	beqz	v0,879048b8 <huft_build+0x62c>
879047c4:	8fa605dc 	lw	a2,1500(sp)
879047c8:	2c620100 	sltiu	v0,v1,256
879047cc:	240d000f 	li	t5,15
879047d0:	24070010 	li	a3,16
879047d4:	24840004 	addiu	a0,a0,4
879047d8:	a7a30014 	sh	v1,20(sp)
879047dc:	00e2680b 	movn	t5,a3,v0
879047e0:	afa40574 	sw	a0,1396(sp)
879047e4:	8fa40584 	lw	a0,1412(sp)
879047e8:	01971806 	srlv	v1,s7,t4
879047ec:	24060001 	li	a2,1
879047f0:	0064102b 	sltu	v0,v1,a0
879047f4:	10400011 	beqz	v0,8790483c <huft_build+0x5b0>
879047f8:	00a63804 	sllv	a3,a2,a1
879047fc:	000310c0 	sll	v0,v1,0x3
87904800:	01022821 	addu	a1,t0,v0
87904804:	00e33021 	addu	a2,a3,v1
87904808:	000758c0 	sll	t3,a3,0x3
8790480c:	8fa20584 	lw	v0,1412(sp)
87904810:	00c73021 	addu	a2,a2,a3
87904814:	a3ae0011 	sb	t6,17(sp)
87904818:	a3ad0010 	sb	t5,16(sp)
8790481c:	00c71823 	subu	v1,a2,a3
87904820:	8fa40014 	lw	a0,20(sp)
87904824:	0062182b 	sltu	v1,v1,v0
87904828:	8fa20010 	lw	v0,16(sp)
8790482c:	aca40004 	sw	a0,4(a1)
87904830:	aca20000 	sw	v0,0(a1)
87904834:	1460fff5 	bnez	v1,8790480c <huft_build+0x580>
87904838:	00ab2821 	addu	a1,a1,t3
8790483c:	8fa30564 	lw	v1,1380(sp)
87904840:	02e31024 	and	v0,s7,v1
87904844:	10400007 	beqz	v0,87904864 <huft_build+0x5d8>
87904848:	00602021 	move	a0,v1
8790484c:	8fa40564 	lw	a0,1380(sp)
87904850:	02e4b826 	xor	s7,s7,a0
87904854:	00042042 	srl	a0,a0,0x1
87904858:	00971024 	and	v0,a0,s7
8790485c:	1440fffc 	bnez	v0,87904850 <huft_build+0x5c4>
87904860:	00000000 	nop
87904864:	8fa50560 	lw	a1,1376(sp)
87904868:	27a60010 	addiu	a2,sp,16
8790486c:	00051080 	sll	v0,a1,0x2
87904870:	24070001 	li	a3,1
87904874:	00c21021 	addu	v0,a2,v0
87904878:	01871804 	sllv	v1,a3,t4
8790487c:	02e4b826 	xor	s7,s7,a0
87904880:	2463ffff 	addiu	v1,v1,-1
87904884:	8c44008c 	lw	a0,140(v0)
87904888:	02e31824 	and	v1,s7,v1
8790488c:	14640017 	bne	v1,a0,879048ec <huft_build+0x660>
87904890:	24a4ffff 	addiu	a0,a1,-1
87904894:	8fa40568 	lw	a0,1384(sp)
87904898:	09e41142 	j	87904508 <huft_build+0x27c>
8790489c:	afa4058c 	sw	a0,1420(sp)
879048a0:	09e411f9 	j	879047e4 <huft_build+0x558>
879048a4:	240d0063 	li	t5,99
879048a8:	0de41094 	jal	87904250 <huft_free>
879048ac:	8fa40018 	lw	a0,24(sp)
879048b0:	09e411ab 	j	879046ac <huft_build+0x420>
879048b4:	24020003 	li	v0,3
879048b8:	8fa405d8 	lw	a0,1496(sp)
879048bc:	00641023 	subu	v0,v1,a0
879048c0:	8fa705e0 	lw	a3,1504(sp)
879048c4:	00021040 	sll	v0,v0,0x1
879048c8:	00c21821 	addu	v1,a2,v0
879048cc:	00e21021 	addu	v0,a3,v0
879048d0:	904d0000 	lbu	t5,0(v0)
879048d4:	8fa20574 	lw	v0,1396(sp)
879048d8:	94640000 	lhu	a0,0(v1)
879048dc:	24420004 	addiu	v0,v0,4
879048e0:	a7a40014 	sh	a0,20(sp)
879048e4:	09e411f9 	j	879047e4 <huft_build+0x558>
879048e8:	afa20574 	sw	v0,1396(sp)
879048ec:	00041080 	sll	v0,a0,0x2
879048f0:	01422821 	addu	a1,t2,v0
879048f4:	8fa2056c 	lw	v0,1388(sp)
879048f8:	24030001 	li	v1,1
879048fc:	01826021 	addu	t4,t4,v0
87904900:	01831004 	sllv	v0,v1,t4
87904904:	2442ffff 	addiu	v0,v0,-1
87904908:	8ca30000 	lw	v1,0(a1)
8790490c:	00571024 	and	v0,v0,s7
87904910:	24a5fffc 	addiu	a1,a1,-4
87904914:	1043ffdf 	beq	v0,v1,87904894 <huft_build+0x608>
87904918:	afa40560 	sw	a0,1376(sp)
8790491c:	09e4123d 	j	879048f4 <huft_build+0x668>
87904920:	2484ffff 	addiu	a0,a0,-1
87904924:	8fa40588 	lw	a0,1416(sp)
87904928:	8fa5057c 	lw	a1,1404(sp)
8790492c:	8fa60578 	lw	a2,1400(sp)
87904930:	24840001 	addiu	a0,a0,1
87904934:	24a50004 	addiu	a1,a1,4
87904938:	24c60004 	addiu	a2,a2,4
8790493c:	0124102a 	slt	v0,t1,a0
87904940:	afa40588 	sw	a0,1416(sp)
87904944:	afa5057c 	sw	a1,1404(sp)
87904948:	1040fee5 	beqz	v0,879044e0 <huft_build+0x254>
8790494c:	afa60578 	sw	a2,1400(sp)
87904950:	8fac0580 	lw	t4,1408(sp)
87904954:	3c078796 	lui	a3,0x8796
87904958:	acecc040 	sw	t4,-16320(a3)
8790495c:	8fa20570 	lw	v0,1392(sp)
87904960:	1040ff72 	beqz	v0,8790472c <huft_build+0x4a0>
87904964:	8fbf05cc 	lw	ra,1484(sp)
87904968:	39220001 	xori	v0,t1,0x1
8790496c:	09e411cb 	j	8790472c <huft_build+0x4a0>
87904970:	0002102b 	sltu	v0,zero,v0

87904974 <enable_cache>:
enable_cache():
87904974:	40048000 	mfc0	a0,$16
87904978:	2401fff8 	li	at,-8
8790497c:	00812024 	and	a0,a0,at
87904980:	34840003 	ori	a0,a0,0x3
87904984:	03e00008 	jr	ra
87904988:	40848000 	mtc0	a0,$16

8790498c <flush_cache>:
flush_cache():
8790498c:	3c058000 	lui	a1,0x8000
87904990:	24a61000 	addiu	a2,a1,4096
87904994:	bca10000 	cache	0x1,0(a1)
87904998:	bca11000 	cache	0x1,4096(a1)
8790499c:	bca12000 	cache	0x1,8192(a1)
879049a0:	bca13000 	cache	0x1,12288(a1)
879049a4:	bca00000 	cache	0x0,0(a1)
879049a8:	bca01000 	cache	0x0,4096(a1)
879049ac:	bca02000 	cache	0x0,8192(a1)
879049b0:	bca03000 	cache	0x0,12288(a1)
879049b4:	20a50020 	addi	a1,a1,32
879049b8:	14a6fff6 	bne	a1,a2,87904994 <flush_cache+0x8>
879049bc:	00000000 	nop
879049c0:	03e00008 	jr	ra
879049c4:	00000000 	nop

879049c8 <led_on>:
led_on():
879049c8:	00042600 	sll	a0,a0,0x18
879049cc:	00042603 	sra	a0,a0,0x18
879049d0:	3c02bfd0 	lui	v0,0xbfd0
879049d4:	34420010 	ori	v0,v0,0x10
879049d8:	80430000 	lb	v1,0(v0)
879049dc:	00641824 	and	v1,v1,a0
879049e0:	03e00008 	jr	ra
879049e4:	a0430000 	sb	v1,0(v0)

879049e8 <realinitmips>:
realinitmips():
879049e8:	00801821 	move	v1,a0
879049ec:	3c1d8700 	lui	sp,0x8700
879049f0:	37bdc000 	ori	sp,sp,0xc000
879049f4:	3c028708 	lui	v0,0x8708
879049f8:	3442d6f0 	ori	v0,v0,0xd6f0
879049fc:	0040f809 	jalr	v0
87904a00:	00602021 	move	a0,v1
87904a04:	00000000 	nop
87904a08:	1000ffff 	b	87904a08 <realinitmips+0x20>
87904a0c:	00000000 	nop
87904a10:	03e00008 	jr	ra
87904a14:	00000000 	nop

87904a18 <tgt_puts>:
tgt_puts():
87904a18:	27bdffe8 	addiu	sp,sp,-24
87904a1c:	afb00010 	sw	s0,16(sp)
87904a20:	afbf0014 	sw	ra,20(sp)
87904a24:	00808021 	move	s0,a0
87904a28:	80840000 	lb	a0,0(a0)
87904a2c:	10800006 	beqz	a0,87904a48 <tgt_puts+0x30>
87904a30:	8fbf0014 	lw	ra,20(sp)
87904a34:	0de40f00 	jal	87903c00 <tgt_putchar>
87904a38:	26100001 	addiu	s0,s0,1
87904a3c:	82040000 	lb	a0,0(s0)
87904a40:	1480fffc 	bnez	a0,87904a34 <tgt_puts+0x1c>
87904a44:	8fbf0014 	lw	ra,20(sp)
87904a48:	00001021 	move	v0,zero
87904a4c:	8fb00010 	lw	s0,16(sp)
87904a50:	03e00008 	jr	ra
87904a54:	27bd0018 	addiu	sp,sp,24

87904a58 <flush_window>:
flush_window():
87904a58:	27bdffd0 	addiu	sp,sp,-48
87904a5c:	2404002e 	li	a0,46
87904a60:	afb50028 	sw	s5,40(sp)
87904a64:	3c158796 	lui	s5,0x8796
87904a68:	afbf002c 	sw	ra,44(sp)
87904a6c:	afb40024 	sw	s4,36(sp)
87904a70:	afb30020 	sw	s3,32(sp)
87904a74:	afb2001c 	sw	s2,28(sp)
87904a78:	afb10018 	sw	s1,24(sp)
87904a7c:	afb00014 	sw	s0,20(sp)
87904a80:	8eb2c044 	lw	s2,-16316(s5)
87904a84:	0de40f00 	jal	87903c00 <tgt_putchar>
87904a88:	3c148796 	lui	s4,0x8796
87904a8c:	3c028796 	lui	v0,0x8796
87904a90:	8e93c02c 	lw	s3,-16340(s4)
87904a94:	3c108796 	lui	s0,0x8796
87904a98:	8c51c020 	lw	s1,-16352(v0)
87904a9c:	8e04d008 	lw	a0,-12280(s0)
87904aa0:	02202821 	move	a1,s1
87904aa4:	0de41000 	jal	87904000 <memcpy>
87904aa8:	02603021 	move	a2,s3
87904aac:	8e03d008 	lw	v1,-12280(s0)
87904ab0:	00731821 	addu	v1,v1,s3
87904ab4:	12600010 	beqz	s3,87904af8 <flush_window+0xa0>
87904ab8:	ae03d008 	sw	v1,-12280(s0)
87904abc:	3c028796 	lui	v0,0x8796
87904ac0:	2446c050 	addiu	a2,v0,-16304
87904ac4:	00002821 	move	a1,zero
87904ac8:	92220000 	lbu	v0,0(s1)
87904acc:	24a50001 	addiu	a1,a1,1
87904ad0:	02421026 	xor	v0,s2,v0
87904ad4:	304200ff 	andi	v0,v0,0xff
87904ad8:	00021080 	sll	v0,v0,0x2
87904adc:	00c21021 	addu	v0,a2,v0
87904ae0:	8c440000 	lw	a0,0(v0)
87904ae4:	00121a02 	srl	v1,s2,0x8
87904ae8:	00b3102b 	sltu	v0,a1,s3
87904aec:	00839026 	xor	s2,a0,v1
87904af0:	1440fff5 	bnez	v0,87904ac8 <flush_window+0x70>
87904af4:	26310001 	addiu	s1,s1,1
87904af8:	3c038796 	lui	v1,0x8796
87904afc:	8c62c034 	lw	v0,-16332(v1)
87904b00:	8fbf002c 	lw	ra,44(sp)
87904b04:	00531021 	addu	v0,v0,s3
87904b08:	aeb2c044 	sw	s2,-16316(s5)
87904b0c:	ae80c02c 	sw	zero,-16340(s4)
87904b10:	8fb50028 	lw	s5,40(sp)
87904b14:	8fb40024 	lw	s4,36(sp)
87904b18:	8fb30020 	lw	s3,32(sp)
87904b1c:	8fb2001c 	lw	s2,28(sp)
87904b20:	8fb10018 	lw	s1,24(sp)
87904b24:	8fb00014 	lw	s0,20(sp)
87904b28:	ac62c034 	sw	v0,-16332(v1)
87904b2c:	03e00008 	jr	ra
87904b30:	27bd0030 	addiu	sp,sp,48

87904b34 <inflate_codes>:
inflate_codes():
87904b34:	27bdffc0 	addiu	sp,sp,-64
87904b38:	00061840 	sll	v1,a2,0x1
87904b3c:	afa60048 	sw	a2,72(sp)
87904b40:	3c068790 	lui	a2,0x8790
87904b44:	24c66e04 	addiu	a2,a2,28164
87904b48:	00071040 	sll	v0,a3,0x1
87904b4c:	00c31821 	addu	v1,a2,v1
87904b50:	00c21021 	addu	v0,a2,v0
87904b54:	94630000 	lhu	v1,0(v1)
87904b58:	94420000 	lhu	v0,0(v0)
87904b5c:	afa30014 	sw	v1,20(sp)
87904b60:	afa20010 	sw	v0,16(sp)
87904b64:	3c098796 	lui	t1,0x8796
87904b68:	3c028796 	lui	v0,0x8796
87904b6c:	3c038796 	lui	v1,0x8796
87904b70:	afb5002c 	sw	s5,44(sp)
87904b74:	afb1001c 	sw	s1,28(sp)
87904b78:	afb00018 	sw	s0,24(sp)
87904b7c:	8d31c038 	lw	s1,-16328(t1)
87904b80:	8c50c03c 	lw	s0,-16324(v0)
87904b84:	8c75c02c 	lw	s5,-16340(v1)
87904b88:	afbe0038 	sw	s8,56(sp)
87904b8c:	afb70034 	sw	s7,52(sp)
87904b90:	afbf003c 	sw	ra,60(sp)
87904b94:	afb60030 	sw	s6,48(sp)
87904b98:	afb40028 	sw	s4,40(sp)
87904b9c:	afb30024 	sw	s3,36(sp)
87904ba0:	afb20020 	sw	s2,32(sp)
87904ba4:	afa7004c 	sw	a3,76(sp)
87904ba8:	afa40040 	sw	a0,64(sp)
87904bac:	afa50044 	sw	a1,68(sp)
87904bb0:	3c178796 	lui	s7,0x8796
87904bb4:	341e8000 	li	s8,0x8000
87904bb8:	8fa90048 	lw	t1,72(sp)
87904bbc:	0209102b 	sltu	v0,s0,t1
87904bc0:	1440003b 	bnez	v0,87904cb0 <inflate_codes+0x17c>
87904bc4:	3c068796 	lui	a2,0x8796
87904bc8:	8fa30014 	lw	v1,20(sp)
87904bcc:	8fa40040 	lw	a0,64(sp)
87904bd0:	02231024 	and	v0,s1,v1
87904bd4:	000210c0 	sll	v0,v0,0x3
87904bd8:	00824021 	addu	t0,a0,v0
87904bdc:	91060000 	lbu	a2,0(t0)
87904be0:	2cc20011 	sltiu	v0,a2,17
87904be4:	1440003d 	bnez	v0,87904cdc <inflate_codes+0x1a8>
87904be8:	24090063 	li	t1,99
87904bec:	10c90108 	beq	a2,t1,87905010 <inflate_codes+0x4dc>
87904bf0:	3c028796 	lui	v0,0x8796
87904bf4:	8c49c01c 	lw	t1,-16356(v0)
87904bf8:	8ee7c028 	lw	a3,-16344(s7)
87904bfc:	3c0c8796 	lui	t4,0x8796
87904c00:	91030001 	lbu	v1,1(t0)
87904c04:	24c6fff0 	addiu	a2,a2,-16
87904c08:	02038023 	subu	s0,s0,v1
87904c0c:	0206102b 	sltu	v0,s0,a2
87904c10:	1040000a 	beqz	v0,87904c3c <inflate_codes+0x108>
87904c14:	00712806 	srlv	a1,s1,v1
87904c18:	01272021 	addu	a0,t1,a3
87904c1c:	90820000 	lbu	v0,0(a0)
87904c20:	24e70001 	addiu	a3,a3,1
87904c24:	02021004 	sllv	v0,v0,s0
87904c28:	26100008 	addiu	s0,s0,8
87904c2c:	0206182b 	sltu	v1,s0,a2
87904c30:	00a22825 	or	a1,a1,v0
87904c34:	1460fff9 	bnez	v1,87904c1c <inflate_codes+0xe8>
87904c38:	24840001 	addiu	a0,a0,1
87904c3c:	3c048790 	lui	a0,0x8790
87904c40:	00061040 	sll	v0,a2,0x1
87904c44:	24846e04 	addiu	a0,a0,28164
87904c48:	00821021 	addu	v0,a0,v0
87904c4c:	94430000 	lhu	v1,0(v0)
87904c50:	8d020004 	lw	v0,4(t0)
87904c54:	00a31824 	and	v1,a1,v1
87904c58:	000318c0 	sll	v1,v1,0x3
87904c5c:	00434021 	addu	t0,v0,v1
87904c60:	91060000 	lbu	a2,0(t0)
87904c64:	2cc20011 	sltiu	v0,a2,17
87904c68:	1440001b 	bnez	v0,87904cd8 <inflate_codes+0x1a4>
87904c6c:	00a08821 	move	s1,a1
87904c70:	24030063 	li	v1,99
87904c74:	14c3ffe2 	bne	a2,v1,87904c00 <inflate_codes+0xcc>
87904c78:	24020001 	li	v0,1
87904c7c:	ad87c028 	sw	a3,-16344(t4)
87904c80:	8fbf003c 	lw	ra,60(sp)
87904c84:	8fbe0038 	lw	s8,56(sp)
87904c88:	8fb70034 	lw	s7,52(sp)
87904c8c:	8fb60030 	lw	s6,48(sp)
87904c90:	8fb5002c 	lw	s5,44(sp)
87904c94:	8fb40028 	lw	s4,40(sp)
87904c98:	8fb30024 	lw	s3,36(sp)
87904c9c:	8fb20020 	lw	s2,32(sp)
87904ca0:	8fb1001c 	lw	s1,28(sp)
87904ca4:	8fb00018 	lw	s0,24(sp)
87904ca8:	03e00008 	jr	ra
87904cac:	27bd0040 	addiu	sp,sp,64
87904cb0:	8ee4c028 	lw	a0,-16344(s7)
87904cb4:	8cc2c01c 	lw	v0,-16356(a2)
87904cb8:	24850001 	addiu	a1,a0,1
87904cbc:	00441021 	addu	v0,v0,a0
87904cc0:	90430000 	lbu	v1,0(v0)
87904cc4:	aee5c028 	sw	a1,-16344(s7)
87904cc8:	02031804 	sllv	v1,v1,s0
87904ccc:	02238825 	or	s1,s1,v1
87904cd0:	09e412ee 	j	87904bb8 <inflate_codes+0x84>
87904cd4:	26100008 	addiu	s0,s0,8
87904cd8:	aee7c028 	sw	a3,-16344(s7)
87904cdc:	91020001 	lbu	v0,1(t0)
87904ce0:	24090010 	li	t1,16
87904ce4:	02028023 	subu	s0,s0,v0
87904ce8:	10c900bd 	beq	a2,t1,87904fe0 <inflate_codes+0x4ac>
87904cec:	00518806 	srlv	s1,s1,v0
87904cf0:	2409000f 	li	t1,15
87904cf4:	10c900d3 	beq	a2,t1,87905044 <inflate_codes+0x510>
87904cf8:	3c038796 	lui	v1,0x8796
87904cfc:	0206102b 	sltu	v0,s0,a2
87904d00:	1040000d 	beqz	v0,87904d38 <inflate_codes+0x204>
87904d04:	3c038796 	lui	v1,0x8796
87904d08:	8ee5c028 	lw	a1,-16344(s7)
87904d0c:	8c62c01c 	lw	v0,-16356(v1)
87904d10:	00452021 	addu	a0,v0,a1
87904d14:	90820000 	lbu	v0,0(a0)
87904d18:	24a50001 	addiu	a1,a1,1
87904d1c:	02021004 	sllv	v0,v0,s0
87904d20:	26100008 	addiu	s0,s0,8
87904d24:	0206182b 	sltu	v1,s0,a2
87904d28:	02228825 	or	s1,s1,v0
87904d2c:	1460fff9 	bnez	v1,87904d14 <inflate_codes+0x1e0>
87904d30:	24840001 	addiu	a0,a0,1
87904d34:	aee5c028 	sw	a1,-16344(s7)
87904d38:	3c048790 	lui	a0,0x8790
87904d3c:	8fa9004c 	lw	t1,76(sp)
87904d40:	02063823 	subu	a3,s0,a2
87904d44:	00061040 	sll	v0,a2,0x1
87904d48:	24846e04 	addiu	a0,a0,28164
87904d4c:	00821021 	addu	v0,a0,v0
87904d50:	00e9182b 	sltu	v1,a3,t1
87904d54:	950d0004 	lhu	t5,4(t0)
87904d58:	94450000 	lhu	a1,0(v0)
87904d5c:	1060000f 	beqz	v1,87904d9c <inflate_codes+0x268>
87904d60:	00d14006 	srlv	t0,s1,a2
87904d64:	3c038796 	lui	v1,0x8796
87904d68:	8ee6c028 	lw	a2,-16344(s7)
87904d6c:	8c62c01c 	lw	v0,-16356(v1)
87904d70:	00462021 	addu	a0,v0,a2
87904d74:	90820000 	lbu	v0,0(a0)
87904d78:	8fa9004c 	lw	t1,76(sp)
87904d7c:	00e21004 	sllv	v0,v0,a3
87904d80:	24e70008 	addiu	a3,a3,8
87904d84:	00e9182b 	sltu	v1,a3,t1
87904d88:	24c60001 	addiu	a2,a2,1
87904d8c:	01024025 	or	t0,t0,v0
87904d90:	1460fff8 	bnez	v1,87904d74 <inflate_codes+0x240>
87904d94:	24840001 	addiu	a0,a0,1
87904d98:	aee6c028 	sw	a2,-16344(s7)
87904d9c:	8fa30010 	lw	v1,16(sp)
87904da0:	8fa60044 	lw	a2,68(sp)
87904da4:	01031024 	and	v0,t0,v1
87904da8:	000210c0 	sll	v0,v0,0x3
87904dac:	00c25021 	addu	t2,a2,v0
87904db0:	91540000 	lbu	s4,0(t2)
87904db4:	2e820011 	sltiu	v0,s4,17
87904db8:	14400034 	bnez	v0,87904e8c <inflate_codes+0x358>
87904dbc:	01002021 	move	a0,t0
87904dc0:	24090063 	li	t1,99
87904dc4:	12890092 	beq	s4,t1,87905010 <inflate_codes+0x4dc>
87904dc8:	3c028796 	lui	v0,0x8796
87904dcc:	8c4bc01c 	lw	t3,-16356(v0)
87904dd0:	8ee9c028 	lw	t1,-16344(s7)
87904dd4:	3c0c8796 	lui	t4,0x8796
87904dd8:	91430001 	lbu	v1,1(t2)
87904ddc:	2688fff0 	addiu	t0,s4,-16
87904de0:	00e33823 	subu	a3,a3,v1
87904de4:	00e8102b 	sltu	v0,a3,t0
87904de8:	1040000a 	beqz	v0,87904e14 <inflate_codes+0x2e0>
87904dec:	00643006 	srlv	a2,a0,v1
87904df0:	01692021 	addu	a0,t3,t1
87904df4:	90820000 	lbu	v0,0(a0)
87904df8:	25290001 	addiu	t1,t1,1
87904dfc:	00e21004 	sllv	v0,v0,a3
87904e00:	24e70008 	addiu	a3,a3,8
87904e04:	00e8182b 	sltu	v1,a3,t0
87904e08:	00c23025 	or	a2,a2,v0
87904e0c:	1460fff9 	bnez	v1,87904df4 <inflate_codes+0x2c0>
87904e10:	24840001 	addiu	a0,a0,1
87904e14:	3c048790 	lui	a0,0x8790
87904e18:	24846e04 	addiu	a0,a0,28164
87904e1c:	00081040 	sll	v0,t0,0x1
87904e20:	00821021 	addu	v0,a0,v0
87904e24:	94430000 	lhu	v1,0(v0)
87904e28:	8d420004 	lw	v0,4(t2)
87904e2c:	00c31824 	and	v1,a2,v1
87904e30:	000318c0 	sll	v1,v1,0x3
87904e34:	00435021 	addu	t2,v0,v1
87904e38:	91540000 	lbu	s4,0(t2)
87904e3c:	2e820011 	sltiu	v0,s4,17
87904e40:	14400011 	bnez	v0,87904e88 <inflate_codes+0x354>
87904e44:	00c02021 	move	a0,a2
87904e48:	24030063 	li	v1,99
87904e4c:	1683ffe2 	bne	s4,v1,87904dd8 <inflate_codes+0x2a4>
87904e50:	8fbf003c 	lw	ra,60(sp)
87904e54:	24020001 	li	v0,1
87904e58:	8fbe0038 	lw	s8,56(sp)
87904e5c:	8fb70034 	lw	s7,52(sp)
87904e60:	8fb60030 	lw	s6,48(sp)
87904e64:	8fb5002c 	lw	s5,44(sp)
87904e68:	8fb40028 	lw	s4,40(sp)
87904e6c:	8fb30024 	lw	s3,36(sp)
87904e70:	8fb20020 	lw	s2,32(sp)
87904e74:	8fb1001c 	lw	s1,28(sp)
87904e78:	8fb00018 	lw	s0,24(sp)
87904e7c:	ad89c028 	sw	t1,-16344(t4)
87904e80:	03e00008 	jr	ra
87904e84:	27bd0040 	addiu	sp,sp,64
87904e88:	aee9c028 	sw	t1,-16344(s7)
87904e8c:	91420001 	lbu	v0,1(t2)
87904e90:	00e29823 	subu	s3,a3,v0
87904e94:	0274182b 	sltu	v1,s3,s4
87904e98:	1060000e 	beqz	v1,87904ed4 <inflate_codes+0x3a0>
87904e9c:	0044b006 	srlv	s6,a0,v0
87904ea0:	3c098796 	lui	t1,0x8796
87904ea4:	8ee6c028 	lw	a2,-16344(s7)
87904ea8:	8d22c01c 	lw	v0,-16356(t1)
87904eac:	00462021 	addu	a0,v0,a2
87904eb0:	90820000 	lbu	v0,0(a0)
87904eb4:	24c60001 	addiu	a2,a2,1
87904eb8:	02621004 	sllv	v0,v0,s3
87904ebc:	26730008 	addiu	s3,s3,8
87904ec0:	0274182b 	sltu	v1,s3,s4
87904ec4:	02c2b025 	or	s6,s6,v0
87904ec8:	1460fff9 	bnez	v1,87904eb0 <inflate_codes+0x37c>
87904ecc:	24840001 	addiu	a0,a0,1
87904ed0:	aee6c028 	sw	a2,-16344(s7)
87904ed4:	3c038790 	lui	v1,0x8790
87904ed8:	24636e04 	addiu	v1,v1,28164
87904edc:	00141040 	sll	v0,s4,0x1
87904ee0:	00621021 	addu	v0,v1,v0
87904ee4:	95440004 	lhu	a0,4(t2)
87904ee8:	94430000 	lhu	v1,0(v0)
87904eec:	02252824 	and	a1,s1,a1
87904ef0:	02a42023 	subu	a0,s5,a0
87904ef4:	02c31824 	and	v1,s6,v1
87904ef8:	00ad9021 	addu	s2,a1,t5
87904efc:	00838823 	subu	s1,a0,v1
87904f00:	32277fff 	andi	a3,s1,0x7fff
87904f04:	02a7102b 	sltu	v0,s5,a3
87904f08:	10400022 	beqz	v0,87904f94 <inflate_codes+0x460>
87904f0c:	03d51023 	subu	v0,s8,s5
87904f10:	03c71023 	subu	v0,s8,a3
87904f14:	0242182b 	sltu	v1,s2,v0
87904f18:	02408021 	move	s0,s2
87904f1c:	0043800a 	movz	s0,v0,v1
87904f20:	02a71023 	subu	v0,s5,a3
87904f24:	0050102b 	sltu	v0,v0,s0
87904f28:	10400021 	beqz	v0,87904fb0 <inflate_codes+0x47c>
87904f2c:	02509023 	subu	s2,s2,s0
87904f30:	3c098796 	lui	t1,0x8796
87904f34:	8d22c020 	lw	v0,-16352(t1)
87904f38:	02002821 	move	a1,s0
87904f3c:	00552021 	addu	a0,v0,s5
87904f40:	00471821 	addu	v1,v0,a3
87904f44:	90620000 	lbu	v0,0(v1)
87904f48:	24a5ffff 	addiu	a1,a1,-1
87904f4c:	a0820000 	sb	v0,0(a0)
87904f50:	24630001 	addiu	v1,v1,1
87904f54:	14a0fffb 	bnez	a1,87904f44 <inflate_codes+0x410>
87904f58:	24840001 	addiu	a0,a0,1
87904f5c:	02b0a821 	addu	s5,s5,s0
87904f60:	12be0005 	beq	s5,s8,87904f78 <inflate_codes+0x444>
87904f64:	02078821 	addu	s1,s0,a3
87904f68:	1640ffe5 	bnez	s2,87904f00 <inflate_codes+0x3cc>
87904f6c:	02748023 	subu	s0,s3,s4
87904f70:	09e412ee 	j	87904bb8 <inflate_codes+0x84>
87904f74:	02968806 	srlv	s1,s6,s4
87904f78:	3c028796 	lui	v0,0x8796
87904f7c:	0de41296 	jal	87904a58 <flush_window>
87904f80:	ac55c02c 	sw	s5,-16340(v0)
87904f84:	1640ffde 	bnez	s2,87904f00 <inflate_codes+0x3cc>
87904f88:	0000a821 	move	s5,zero
87904f8c:	09e413dc 	j	87904f70 <inflate_codes+0x43c>
87904f90:	02748023 	subu	s0,s3,s4
87904f94:	0242182b 	sltu	v1,s2,v0
87904f98:	02408021 	move	s0,s2
87904f9c:	0043800a 	movz	s0,v0,v1
87904fa0:	02a71023 	subu	v0,s5,a3
87904fa4:	0050102b 	sltu	v0,v0,s0
87904fa8:	1440ffe1 	bnez	v0,87904f30 <inflate_codes+0x3fc>
87904fac:	02509023 	subu	s2,s2,s0
87904fb0:	3c068796 	lui	a2,0x8796
87904fb4:	8cc4c020 	lw	a0,-16352(a2)
87904fb8:	02003021 	move	a2,s0
87904fbc:	00872821 	addu	a1,a0,a3
87904fc0:	00952021 	addu	a0,a0,s5
87904fc4:	02b0a821 	addu	s5,s5,s0
87904fc8:	0de41000 	jal	87904000 <memcpy>
87904fcc:	02078821 	addu	s1,s0,a3
87904fd0:	16beffe5 	bne	s5,s8,87904f68 <inflate_codes+0x434>
87904fd4:	3c028796 	lui	v0,0x8796
87904fd8:	09e413df 	j	87904f7c <inflate_codes+0x448>
87904fdc:	00000000 	nop
87904fe0:	3c038796 	lui	v1,0x8796
87904fe4:	8c62c020 	lw	v0,-16352(v1)
87904fe8:	95030004 	lhu	v1,4(t0)
87904fec:	00551021 	addu	v0,v0,s5
87904ff0:	26b50001 	addiu	s5,s5,1
87904ff4:	16befef0 	bne	s5,s8,87904bb8 <inflate_codes+0x84>
87904ff8:	a0430000 	sb	v1,0(v0)
87904ffc:	3c048796 	lui	a0,0x8796
87905000:	0de41296 	jal	87904a58 <flush_window>
87905004:	ac95c02c 	sw	s5,-16340(a0)
87905008:	09e412ee 	j	87904bb8 <inflate_codes+0x84>
8790500c:	0000a821 	move	s5,zero
87905010:	8fbf003c 	lw	ra,60(sp)
87905014:	24020001 	li	v0,1
87905018:	8fbe0038 	lw	s8,56(sp)
8790501c:	8fb70034 	lw	s7,52(sp)
87905020:	8fb60030 	lw	s6,48(sp)
87905024:	8fb5002c 	lw	s5,44(sp)
87905028:	8fb40028 	lw	s4,40(sp)
8790502c:	8fb30024 	lw	s3,36(sp)
87905030:	8fb20020 	lw	s2,32(sp)
87905034:	8fb1001c 	lw	s1,28(sp)
87905038:	8fb00018 	lw	s0,24(sp)
8790503c:	03e00008 	jr	ra
87905040:	27bd0040 	addiu	sp,sp,64
87905044:	3c048796 	lui	a0,0x8796
87905048:	3c068796 	lui	a2,0x8796
8790504c:	ac75c02c 	sw	s5,-16340(v1)
87905050:	ac91c038 	sw	s1,-16328(a0)
87905054:	acd0c03c 	sw	s0,-16324(a2)
87905058:	09e41320 	j	87904c80 <inflate_codes+0x14c>
8790505c:	00001021 	move	v0,zero

87905060 <inflate_dynamic>:
inflate_dynamic():
87905060:	3c0e8796 	lui	t6,0x8796
87905064:	8dc7c03c 	lw	a3,-16324(t6)
87905068:	27bdfaa8 	addiu	sp,sp,-1368
8790506c:	3c0d8796 	lui	t5,0x8796
87905070:	2ce20005 	sltiu	v0,a3,5
87905074:	afbf0554 	sw	ra,1364(sp)
87905078:	afbe0550 	sw	s8,1360(sp)
8790507c:	afb7054c 	sw	s7,1356(sp)
87905080:	afb60548 	sw	s6,1352(sp)
87905084:	afb50544 	sw	s5,1348(sp)
87905088:	afb40540 	sw	s4,1344(sp)
8790508c:	afb3053c 	sw	s3,1340(sp)
87905090:	afb20538 	sw	s2,1336(sp)
87905094:	afb10534 	sw	s1,1332(sp)
87905098:	afb00530 	sw	s0,1328(sp)
8790509c:	1040000c 	beqz	v0,879050d0 <inflate_dynamic+0x70>
879050a0:	8da6c038 	lw	a2,-16328(t5)
879050a4:	3c058796 	lui	a1,0x8796
879050a8:	3c038796 	lui	v1,0x8796
879050ac:	8ca4c028 	lw	a0,-16344(a1)
879050b0:	8c62c01c 	lw	v0,-16356(v1)
879050b4:	00441021 	addu	v0,v0,a0
879050b8:	90430000 	lbu	v1,0(v0)
879050bc:	24840001 	addiu	a0,a0,1
879050c0:	00e31804 	sllv	v1,v1,a3
879050c4:	aca4c028 	sw	a0,-16344(a1)
879050c8:	00c33025 	or	a2,a2,v1
879050cc:	24e70008 	addiu	a3,a3,8
879050d0:	24e8fffb 	addiu	t0,a3,-5
879050d4:	30c2001f 	andi	v0,a2,0x1f
879050d8:	2d030005 	sltiu	v1,t0,5
879050dc:	24570101 	addiu	s7,v0,257
879050e0:	10600012 	beqz	v1,8790512c <inflate_dynamic+0xcc>
879050e4:	00065142 	srl	t2,a2,0x5
879050e8:	3c068796 	lui	a2,0x8796
879050ec:	3c028796 	lui	v0,0x8796
879050f0:	8cc4c028 	lw	a0,-16344(a2)
879050f4:	8c43c01c 	lw	v1,-16356(v0)
879050f8:	24020009 	li	v0,9
879050fc:	00641821 	addu	v1,v1,a0
87905100:	90650000 	lbu	a1,0(v1)
87905104:	00471023 	subu	v0,v0,a3
87905108:	000210c2 	srl	v0,v0,0x3
8790510c:	24840001 	addiu	a0,a0,1
87905110:	01052804 	sllv	a1,a1,t0
87905114:	00822021 	addu	a0,a0,v0
87905118:	24e30003 	addiu	v1,a3,3
8790511c:	000210c0 	sll	v0,v0,0x3
87905120:	acc4c028 	sw	a0,-16344(a2)
87905124:	01455025 	or	t2,t2,a1
87905128:	00624021 	addu	t0,v1,v0
8790512c:	2507fffb 	addiu	a3,t0,-5
87905130:	2ce20004 	sltiu	v0,a3,4
87905134:	10400012 	beqz	v0,87905180 <inflate_dynamic+0x120>
87905138:	000a4942 	srl	t1,t2,0x5
8790513c:	3c068796 	lui	a2,0x8796
87905140:	3c028796 	lui	v0,0x8796
87905144:	8cc4c028 	lw	a0,-16344(a2)
87905148:	8c43c01c 	lw	v1,-16356(v0)
8790514c:	24020008 	li	v0,8
87905150:	00641821 	addu	v1,v1,a0
87905154:	90650000 	lbu	a1,0(v1)
87905158:	00481023 	subu	v0,v0,t0
8790515c:	000210c2 	srl	v0,v0,0x3
87905160:	24840001 	addiu	a0,a0,1
87905164:	00e52804 	sllv	a1,a1,a3
87905168:	00822021 	addu	a0,a0,v0
8790516c:	25030003 	addiu	v1,t0,3
87905170:	000210c0 	sll	v0,v0,0x3
87905174:	acc4c028 	sw	a0,-16344(a2)
87905178:	01254825 	or	t1,t1,a1
8790517c:	00623821 	addu	a3,v1,v0
87905180:	3122000f 	andi	v0,t1,0xf
87905184:	2ee3011f 	sltiu	v1,s7,287
87905188:	10600093 	beqz	v1,879053d8 <inflate_dynamic+0x378>
8790518c:	24480004 	addiu	t0,v0,4
87905190:	3142001f 	andi	v0,t2,0x1f
87905194:	24560001 	addiu	s6,v0,1
87905198:	2ec3001f 	sltiu	v1,s6,31
8790519c:	1060008e 	beqz	v1,879053d8 <inflate_dynamic+0x378>
879051a0:	3c0c8796 	lui	t4,0x8796
879051a4:	3c028790 	lui	v0,0x8790
879051a8:	3c038796 	lui	v1,0x8796
879051ac:	244a6db8 	addiu	t2,v0,28088
879051b0:	8c74c01c 	lw	s4,-16356(v1)
879051b4:	8d92c028 	lw	s2,-16344(t4)
879051b8:	00098902 	srl	s1,t1,0x4
879051bc:	24f0fffc 	addiu	s0,a3,-4
879051c0:	01402821 	move	a1,t2
879051c4:	00003021 	move	a2,zero
879051c8:	27b50020 	addiu	s5,sp,32
879051cc:	2e020003 	sltiu	v0,s0,3
879051d0:	10400006 	beqz	v0,879051ec <inflate_dynamic+0x18c>
879051d4:	02921821 	addu	v1,s4,s2
879051d8:	90620000 	lbu	v0,0(v1)
879051dc:	26520001 	addiu	s2,s2,1
879051e0:	02021004 	sllv	v0,v0,s0
879051e4:	02228825 	or	s1,s1,v0
879051e8:	26100008 	addiu	s0,s0,8
879051ec:	8ca20000 	lw	v0,0(a1)
879051f0:	24c60001 	addiu	a2,a2,1
879051f4:	00021080 	sll	v0,v0,0x2
879051f8:	32230007 	andi	v1,s1,0x7
879051fc:	02a21021 	addu	v0,s5,v0
87905200:	00c8202b 	sltu	a0,a2,t0
87905204:	ac430010 	sw	v1,16(v0)
87905208:	001188c2 	srl	s1,s1,0x3
8790520c:	2610fffd 	addiu	s0,s0,-3
87905210:	1480ffee 	bnez	a0,879051cc <inflate_dynamic+0x16c>
87905214:	24a50004 	addiu	a1,a1,4
87905218:	2cc20013 	sltiu	v0,a2,19
8790521c:	1040000b 	beqz	v0,8790524c <inflate_dynamic+0x1ec>
87905220:	ad92c028 	sw	s2,-16344(t4)
87905224:	00061080 	sll	v0,a2,0x2
87905228:	3c038790 	lui	v1,0x8790
8790522c:	01422021 	addu	a0,t2,v0
87905230:	24636e04 	addiu	v1,v1,28164
87905234:	8c820000 	lw	v0,0(a0)
87905238:	24840004 	addiu	a0,a0,4
8790523c:	00021080 	sll	v0,v0,0x2
87905240:	02a21021 	addu	v0,s5,v0
87905244:	1464fffb 	bne	v1,a0,87905234 <inflate_dynamic+0x1d4>
87905248:	ac400010 	sw	zero,16(v0)
8790524c:	27be0030 	addiu	s8,sp,48
87905250:	24020007 	li	v0,7
87905254:	03c02021 	move	a0,s8
87905258:	24050013 	li	a1,19
8790525c:	24060013 	li	a2,19
87905260:	00003821 	move	a3,zero
87905264:	afa20028 	sw	v0,40(sp)
87905268:	27a20028 	addiu	v0,sp,40
8790526c:	afac0520 	sw	t4,1312(sp)
87905270:	afad0524 	sw	t5,1316(sp)
87905274:	afae0528 	sw	t6,1320(sp)
87905278:	afa00010 	sw	zero,16(sp)
8790527c:	afb50014 	sw	s5,20(sp)
87905280:	0de410a3 	jal	8790428c <huft_build>
87905284:	afa20018 	sw	v0,24(sp)
87905288:	8fac0520 	lw	t4,1312(sp)
8790528c:	00409821 	move	s3,v0
87905290:	8fad0524 	lw	t5,1316(sp)
87905294:	1440005e 	bnez	v0,87905410 <inflate_dynamic+0x3b0>
87905298:	8fae0528 	lw	t6,1320(sp)
8790529c:	8fa80028 	lw	t0,40(sp)
879052a0:	3c028790 	lui	v0,0x8790
879052a4:	00081840 	sll	v1,t0,0x1
879052a8:	24426e04 	addiu	v0,v0,28164
879052ac:	00621821 	addu	v1,v1,v0
879052b0:	946b0000 	lhu	t3,0(v1)
879052b4:	8faa0020 	lw	t2,32(sp)
879052b8:	02d74821 	addu	t1,s6,s7
879052bc:	00003021 	move	a2,zero
879052c0:	240f0010 	li	t7,16
879052c4:	24180011 	li	t8,17
879052c8:	2407ffff 	li	a3,-1
879052cc:	0269102b 	sltu	v0,s3,t1
879052d0:	1040001e 	beqz	v0,8790534c <inflate_dynamic+0x2ec>
879052d4:	01402021 	move	a0,t2
879052d8:	0208102b 	sltu	v0,s0,t0
879052dc:	10400009 	beqz	v0,87905304 <inflate_dynamic+0x2a4>
879052e0:	02922021 	addu	a0,s4,s2
879052e4:	90820000 	lbu	v0,0(a0)
879052e8:	26520001 	addiu	s2,s2,1
879052ec:	02021004 	sllv	v0,v0,s0
879052f0:	26100008 	addiu	s0,s0,8
879052f4:	0208182b 	sltu	v1,s0,t0
879052f8:	02228825 	or	s1,s1,v0
879052fc:	1460fff9 	bnez	v1,879052e4 <inflate_dynamic+0x284>
87905300:	24840001 	addiu	a0,a0,1
87905304:	022b1024 	and	v0,s1,t3
87905308:	000210c0 	sll	v0,v0,0x3
8790530c:	01421021 	addu	v0,t2,v0
87905310:	afa20024 	sw	v0,36(sp)
87905314:	94450004 	lhu	a1,4(v0)
87905318:	90430001 	lbu	v1,1(v0)
8790531c:	2ca40010 	sltiu	a0,a1,16
87905320:	02038023 	subu	s0,s0,v1
87905324:	10800041 	beqz	a0,8790542c <inflate_dynamic+0x3cc>
87905328:	00718806 	srlv	s1,s1,v1
8790532c:	00131080 	sll	v0,s3,0x2
87905330:	02a21021 	addu	v0,s5,v0
87905334:	26730001 	addiu	s3,s3,1
87905338:	ac450010 	sw	a1,16(v0)
8790533c:	0269102b 	sltu	v0,s3,t1
87905340:	1440ffe5 	bnez	v0,879052d8 <inflate_dynamic+0x278>
87905344:	00a03021 	move	a2,a1
87905348:	01402021 	move	a0,t2
8790534c:	ad92c028 	sw	s2,-16344(t4)
87905350:	afad0524 	sw	t5,1316(sp)
87905354:	0de41094 	jal	87904250 <huft_free>
87905358:	afae0528 	sw	t6,1320(sp)
8790535c:	8fad0524 	lw	t5,1316(sp)
87905360:	8fae0528 	lw	t6,1320(sp)
87905364:	3c078790 	lui	a3,0x8790
87905368:	3c028790 	lui	v0,0x8790
8790536c:	24426e68 	addiu	v0,v0,28264
87905370:	24e76e28 	addiu	a3,a3,28200
87905374:	03c02021 	move	a0,s8
87905378:	02e02821 	move	a1,s7
8790537c:	24060101 	li	a2,257
87905380:	adb1c038 	sw	s1,-16328(t5)
87905384:	add0c03c 	sw	s0,-16324(t6)
87905388:	24030009 	li	v1,9
8790538c:	afa20010 	sw	v0,16(sp)
87905390:	27a20028 	addiu	v0,sp,40
87905394:	afa30028 	sw	v1,40(sp)
87905398:	afb50014 	sw	s5,20(sp)
8790539c:	0de410a3 	jal	8790428c <huft_build>
879053a0:	afa20018 	sw	v0,24(sp)
879053a4:	1040007c 	beqz	v0,87905598 <inflate_dynamic+0x538>
879053a8:	00409821 	move	s3,v0
879053ac:	24020001 	li	v0,1
879053b0:	1662000a 	bne	s3,v0,879053dc <inflate_dynamic+0x37c>
879053b4:	3c048790 	lui	a0,0x8790
879053b8:	0de41286 	jal	87904a18 <tgt_puts>
879053bc:	24846f38 	addiu	a0,a0,28472
879053c0:	8fa40020 	lw	a0,32(sp)
879053c4:	3c028796 	lui	v0,0x8796
879053c8:	0de41094 	jal	87904250 <huft_free>
879053cc:	ac53c030 	sw	s3,-16336(v0)
879053d0:	09e414f8 	j	879053e0 <inflate_dynamic+0x380>
879053d4:	8fbf0554 	lw	ra,1364(sp)
879053d8:	24130001 	li	s3,1
879053dc:	8fbf0554 	lw	ra,1364(sp)
879053e0:	02601021 	move	v0,s3
879053e4:	8fbe0550 	lw	s8,1360(sp)
879053e8:	8fb7054c 	lw	s7,1356(sp)
879053ec:	8fb60548 	lw	s6,1352(sp)
879053f0:	8fb50544 	lw	s5,1348(sp)
879053f4:	8fb40540 	lw	s4,1344(sp)
879053f8:	8fb3053c 	lw	s3,1340(sp)
879053fc:	8fb20538 	lw	s2,1336(sp)
87905400:	8fb10534 	lw	s1,1332(sp)
87905404:	8fb00530 	lw	s0,1328(sp)
87905408:	03e00008 	jr	ra
8790540c:	27bd0558 	addiu	sp,sp,1368
87905410:	24020001 	li	v0,1
87905414:	1662fff1 	bne	s3,v0,879053dc <inflate_dynamic+0x37c>
87905418:	00000000 	nop
8790541c:	0de41094 	jal	87904250 <huft_free>
87905420:	8fa40020 	lw	a0,32(sp)
87905424:	09e414f8 	j	879053e0 <inflate_dynamic+0x380>
87905428:	8fbf0554 	lw	ra,1364(sp)
8790542c:	10af0023 	beq	a1,t7,879054bc <inflate_dynamic+0x45c>
87905430:	2e020002 	sltiu	v0,s0,2
87905434:	10b8003a 	beq	a1,t8,87905520 <inflate_dynamic+0x4c0>
87905438:	2e020007 	sltiu	v0,s0,7
8790543c:	1040000c 	beqz	v0,87905470 <inflate_dynamic+0x410>
87905440:	02921021 	addu	v0,s4,s2
87905444:	00101827 	nor	v1,zero,s0
87905448:	90440000 	lbu	a0,0(v0)
8790544c:	24630007 	addiu	v1,v1,7
87905450:	000318c2 	srl	v1,v1,0x3
87905454:	02042004 	sllv	a0,a0,s0
87905458:	26460001 	addiu	a2,s2,1
8790545c:	000328c0 	sll	a1,v1,0x3
87905460:	26020008 	addiu	v0,s0,8
87905464:	02248825 	or	s1,s1,a0
87905468:	00458021 	addu	s0,v0,a1
8790546c:	00c39021 	addu	s2,a2,v1
87905470:	3223007f 	andi	v1,s1,0x7f
87905474:	2462000b 	addiu	v0,v1,11
87905478:	00531021 	addu	v0,v0,s3
8790547c:	0122102b 	sltu	v0,t1,v0
87905480:	001189c2 	srl	s1,s1,0x7
87905484:	14400041 	bnez	v0,8790558c <inflate_dynamic+0x52c>
87905488:	2610fff9 	addiu	s0,s0,-7
8790548c:	2464000a 	addiu	a0,v1,10
87905490:	00131080 	sll	v0,s3,0x2
87905494:	03c21821 	addu	v1,s8,v0
87905498:	00801021 	move	v0,a0
8790549c:	2442ffff 	addiu	v0,v0,-1
879054a0:	ac600000 	sw	zero,0(v1)
879054a4:	1447fffd 	bne	v0,a3,8790549c <inflate_dynamic+0x43c>
879054a8:	24630004 	addiu	v1,v1,4
879054ac:	26620001 	addiu	v0,s3,1
879054b0:	00449821 	addu	s3,v0,a0
879054b4:	09e414b3 	j	879052cc <inflate_dynamic+0x26c>
879054b8:	00003021 	move	a2,zero
879054bc:	10400006 	beqz	v0,879054d8 <inflate_dynamic+0x478>
879054c0:	02921821 	addu	v1,s4,s2
879054c4:	90620000 	lbu	v0,0(v1)
879054c8:	26520001 	addiu	s2,s2,1
879054cc:	02021004 	sllv	v0,v0,s0
879054d0:	02228825 	or	s1,s1,v0
879054d4:	26100008 	addiu	s0,s0,8
879054d8:	32230003 	andi	v1,s1,0x3
879054dc:	24620003 	addiu	v0,v1,3
879054e0:	00531021 	addu	v0,v0,s3
879054e4:	0122102b 	sltu	v0,t1,v0
879054e8:	00118882 	srl	s1,s1,0x2
879054ec:	14400027 	bnez	v0,8790558c <inflate_dynamic+0x52c>
879054f0:	2610fffe 	addiu	s0,s0,-2
879054f4:	24640002 	addiu	a0,v1,2
879054f8:	00131080 	sll	v0,s3,0x2
879054fc:	03c21821 	addu	v1,s8,v0
87905500:	00801021 	move	v0,a0
87905504:	2442ffff 	addiu	v0,v0,-1
87905508:	ac660000 	sw	a2,0(v1)
8790550c:	1447fffd 	bne	v0,a3,87905504 <inflate_dynamic+0x4a4>
87905510:	24630004 	addiu	v1,v1,4
87905514:	26620001 	addiu	v0,s3,1
87905518:	09e414b3 	j	879052cc <inflate_dynamic+0x26c>
8790551c:	00449821 	addu	s3,v0,a0
87905520:	2e020003 	sltiu	v0,s0,3
87905524:	10400006 	beqz	v0,87905540 <inflate_dynamic+0x4e0>
87905528:	02921821 	addu	v1,s4,s2
8790552c:	90620000 	lbu	v0,0(v1)
87905530:	26520001 	addiu	s2,s2,1
87905534:	02021004 	sllv	v0,v0,s0
87905538:	02228825 	or	s1,s1,v0
8790553c:	26100008 	addiu	s0,s0,8
87905540:	32230007 	andi	v1,s1,0x7
87905544:	24620003 	addiu	v0,v1,3
87905548:	00531021 	addu	v0,v0,s3
8790554c:	0122102b 	sltu	v0,t1,v0
87905550:	001188c2 	srl	s1,s1,0x3
87905554:	1440000d 	bnez	v0,8790558c <inflate_dynamic+0x52c>
87905558:	2610fffd 	addiu	s0,s0,-3
8790555c:	24640002 	addiu	a0,v1,2
87905560:	00131080 	sll	v0,s3,0x2
87905564:	03c21821 	addu	v1,s8,v0
87905568:	00801021 	move	v0,a0
8790556c:	2442ffff 	addiu	v0,v0,-1
87905570:	ac600000 	sw	zero,0(v1)
87905574:	1447fffd 	bne	v0,a3,8790556c <inflate_dynamic+0x50c>
87905578:	24630004 	addiu	v1,v1,4
8790557c:	26620001 	addiu	v0,s3,1
87905580:	00449821 	addu	s3,v0,a0
87905584:	09e414b3 	j	879052cc <inflate_dynamic+0x26c>
87905588:	00003021 	move	a2,zero
8790558c:	ad92c028 	sw	s2,-16344(t4)
87905590:	09e414f7 	j	879053dc <inflate_dynamic+0x37c>
87905594:	24130001 	li	s3,1
87905598:	00172080 	sll	a0,s7,0x2
8790559c:	3c078790 	lui	a3,0x8790
879055a0:	3c028790 	lui	v0,0x8790
879055a4:	24030006 	li	v1,6
879055a8:	24426ee4 	addiu	v0,v0,28388
879055ac:	03c42021 	addu	a0,s8,a0
879055b0:	02c02821 	move	a1,s6
879055b4:	24e76ea8 	addiu	a3,a3,28328
879055b8:	00003021 	move	a2,zero
879055bc:	afa3002c 	sw	v1,44(sp)
879055c0:	afa20010 	sw	v0,16(sp)
879055c4:	27a30024 	addiu	v1,sp,36
879055c8:	27a2002c 	addiu	v0,sp,44
879055cc:	afa30014 	sw	v1,20(sp)
879055d0:	0de410a3 	jal	8790428c <huft_build>
879055d4:	afa20018 	sw	v0,24(sp)
879055d8:	1040000c 	beqz	v0,8790560c <inflate_dynamic+0x5ac>
879055dc:	00409821 	move	s3,v0
879055e0:	24020001 	li	v0,1
879055e4:	1662ff8d 	bne	s3,v0,8790541c <inflate_dynamic+0x3bc>
879055e8:	3c048790 	lui	a0,0x8790
879055ec:	0de41286 	jal	87904a18 <tgt_puts>
879055f0:	24846f54 	addiu	a0,a0,28500
879055f4:	8fa40024 	lw	a0,36(sp)
879055f8:	3c028796 	lui	v0,0x8796
879055fc:	0de41094 	jal	87904250 <huft_free>
87905600:	ac53c030 	sw	s3,-16336(v0)
87905604:	09e41507 	j	8790541c <inflate_dynamic+0x3bc>
87905608:	00000000 	nop
8790560c:	8fa40020 	lw	a0,32(sp)
87905610:	8fa50024 	lw	a1,36(sp)
87905614:	8fa60028 	lw	a2,40(sp)
87905618:	0de412cd 	jal	87904b34 <inflate_codes>
8790561c:	8fa7002c 	lw	a3,44(sp)
87905620:	1440ff6d 	bnez	v0,879053d8 <inflate_dynamic+0x378>
87905624:	00000000 	nop
87905628:	0de41094 	jal	87904250 <huft_free>
8790562c:	8fa40020 	lw	a0,32(sp)
87905630:	0de41094 	jal	87904250 <huft_free>
87905634:	8fa40024 	lw	a0,36(sp)
87905638:	09e414f8 	j	879053e0 <inflate_dynamic+0x380>
8790563c:	8fbf0554 	lw	ra,1364(sp)

87905640 <inflate_fixed>:
inflate_fixed():
87905640:	27bdfb40 	addiu	sp,sp,-1216
87905644:	afb004b4 	sw	s0,1204(sp)
87905648:	27b00030 	addiu	s0,sp,48
8790564c:	afb104b8 	sw	s1,1208(sp)
87905650:	afbf04bc 	sw	ra,1212(sp)
87905654:	02008821 	move	s1,s0
87905658:	02001021 	move	v0,s0
8790565c:	27a40270 	addiu	a0,sp,624
87905660:	24030008 	li	v1,8
87905664:	ac430000 	sw	v1,0(v0)
87905668:	24420004 	addiu	v0,v0,4
8790566c:	1444fffd 	bne	v0,a0,87905664 <inflate_fixed+0x24>
87905670:	00000000 	nop
87905674:	27a40430 	addiu	a0,sp,1072
87905678:	24030009 	li	v1,9
8790567c:	ac430000 	sw	v1,0(v0)
87905680:	24420004 	addiu	v0,v0,4
87905684:	1444fffd 	bne	v0,a0,8790567c <inflate_fixed+0x3c>
87905688:	00000000 	nop
8790568c:	27a40490 	addiu	a0,sp,1168
87905690:	24030007 	li	v1,7
87905694:	ac430000 	sw	v1,0(v0)
87905698:	24420004 	addiu	v0,v0,4
8790569c:	1444fffd 	bne	v0,a0,87905694 <inflate_fixed+0x54>
879056a0:	00000000 	nop
879056a4:	27a404b0 	addiu	a0,sp,1200
879056a8:	24030008 	li	v1,8
879056ac:	ac430000 	sw	v1,0(v0)
879056b0:	24420004 	addiu	v0,v0,4
879056b4:	1482fffd 	bne	a0,v0,879056ac <inflate_fixed+0x6c>
879056b8:	3c078790 	lui	a3,0x8790
879056bc:	3c028790 	lui	v0,0x8790
879056c0:	24030007 	li	v1,7
879056c4:	24426e68 	addiu	v0,v0,28264
879056c8:	24e76e28 	addiu	a3,a3,28200
879056cc:	02002021 	move	a0,s0
879056d0:	24050120 	li	a1,288
879056d4:	24060101 	li	a2,257
879056d8:	afa30028 	sw	v1,40(sp)
879056dc:	afa20010 	sw	v0,16(sp)
879056e0:	27a30020 	addiu	v1,sp,32
879056e4:	27a20028 	addiu	v0,sp,40
879056e8:	afa30014 	sw	v1,20(sp)
879056ec:	0de410a3 	jal	8790428c <huft_build>
879056f0:	afa20018 	sw	v0,24(sp)
879056f4:	1440001f 	bnez	v0,87905774 <inflate_fixed+0x134>
879056f8:	24030005 	li	v1,5
879056fc:	27a200a8 	addiu	v0,sp,168
87905700:	ae030000 	sw	v1,0(s0)
87905704:	26100004 	addiu	s0,s0,4
87905708:	1450fffd 	bne	v0,s0,87905700 <inflate_fixed+0xc0>
8790570c:	3c078790 	lui	a3,0x8790
87905710:	3c028790 	lui	v0,0x8790
87905714:	24426ee4 	addiu	v0,v0,28388
87905718:	02202021 	move	a0,s1
8790571c:	24e76ea8 	addiu	a3,a3,28328
87905720:	2405001e 	li	a1,30
87905724:	00003021 	move	a2,zero
87905728:	afa3002c 	sw	v1,44(sp)
8790572c:	afa20010 	sw	v0,16(sp)
87905730:	27a30024 	addiu	v1,sp,36
87905734:	27a2002c 	addiu	v0,sp,44
87905738:	afa30014 	sw	v1,20(sp)
8790573c:	0de410a3 	jal	8790428c <huft_build>
87905740:	afa20018 	sw	v0,24(sp)
87905744:	00408021 	move	s0,v0
87905748:	28420002 	slti	v0,v0,2
8790574c:	14400010 	bnez	v0,87905790 <inflate_fixed+0x150>
87905750:	8fa40020 	lw	a0,32(sp)
87905754:	0de41094 	jal	87904250 <huft_free>
87905758:	8fa40020 	lw	a0,32(sp)
8790575c:	8fbf04bc 	lw	ra,1212(sp)
87905760:	02001021 	move	v0,s0
87905764:	8fb104b8 	lw	s1,1208(sp)
87905768:	8fb004b4 	lw	s0,1204(sp)
8790576c:	03e00008 	jr	ra
87905770:	27bd04c0 	addiu	sp,sp,1216
87905774:	8fbf04bc 	lw	ra,1212(sp)
87905778:	00408021 	move	s0,v0
8790577c:	02001021 	move	v0,s0
87905780:	8fb104b8 	lw	s1,1208(sp)
87905784:	8fb004b4 	lw	s0,1204(sp)
87905788:	03e00008 	jr	ra
8790578c:	27bd04c0 	addiu	sp,sp,1216
87905790:	8fa50024 	lw	a1,36(sp)
87905794:	8fa60028 	lw	a2,40(sp)
87905798:	0de412cd 	jal	87904b34 <inflate_codes>
8790579c:	8fa7002c 	lw	a3,44(sp)
879057a0:	10400007 	beqz	v0,879057c0 <inflate_fixed+0x180>
879057a4:	8fb104b8 	lw	s1,1208(sp)
879057a8:	8fbf04bc 	lw	ra,1212(sp)
879057ac:	24100001 	li	s0,1
879057b0:	02001021 	move	v0,s0
879057b4:	8fb004b4 	lw	s0,1204(sp)
879057b8:	03e00008 	jr	ra
879057bc:	27bd04c0 	addiu	sp,sp,1216
879057c0:	8fa40020 	lw	a0,32(sp)
879057c4:	0de41094 	jal	87904250 <huft_free>
879057c8:	00008021 	move	s0,zero
879057cc:	0de41094 	jal	87904250 <huft_free>
879057d0:	8fa40024 	lw	a0,36(sp)
879057d4:	09e415d8 	j	87905760 <inflate_fixed+0x120>
879057d8:	8fbf04bc 	lw	ra,1212(sp)

879057dc <initmips>:
initmips():
879057dc:	27bdffc8 	addiu	sp,sp,-56
879057e0:	afbf0034 	sw	ra,52(sp)
879057e4:	afa40038 	sw	a0,56(sp)
879057e8:	afa5003c 	sw	a1,60(sp)
879057ec:	afbe0030 	sw	s8,48(sp)
879057f0:	afb7002c 	sw	s7,44(sp)
879057f4:	afb60028 	sw	s6,40(sp)
879057f8:	afb50024 	sw	s5,36(sp)
879057fc:	afb40020 	sw	s4,32(sp)
87905800:	afb3001c 	sw	s3,28(sp)
87905804:	afb20018 	sw	s2,24(sp)
87905808:	afb10014 	sw	s1,20(sp)
8790580c:	0de40e8e 	jal	87903a38 <CPU_TLBClear>
87905810:	afb00010 	sw	s0,16(sp)
87905814:	3c048790 	lui	a0,0x8790
87905818:	0de41286 	jal	87904a18 <tgt_puts>
8790581c:	24846f70 	addiu	a0,a0,28528
87905820:	40048000 	mfc0	a0,$16
87905824:	2401fff8 	li	at,-8
87905828:	00812024 	and	a0,a0,at
8790582c:	34840003 	ori	a0,a0,0x3
87905830:	40848000 	mtc0	a0,$16
87905834:	2405006f 	li	a1,111
87905838:	3c02bfd0 	lui	v0,0xbfd0
8790583c:	34420010 	ori	v0,v0,0x10
87905840:	80430000 	lb	v1,0(v0)
87905844:	00651824 	and	v1,v1,a1
87905848:	a0430000 	sb	v1,0(v0)
8790584c:	3c028790 	lui	v0,0x8790
87905850:	244270e4 	addiu	v0,v0,28900
87905854:	3c138796 	lui	s3,0x8796
87905858:	245e0001 	addiu	s8,v0,1
8790585c:	24560002 	addiu	s6,v0,2
87905860:	24570003 	addiu	s7,v0,3
87905864:	3c158796 	lui	s5,0x8796
87905868:	2402ffff 	li	v0,-1
8790586c:	3c038796 	lui	v1,0x8796
87905870:	ac62c044 	sw	v0,-16316(v1)
87905874:	3c058796 	lui	a1,0x8796
87905878:	3c038701 	lui	v1,0x8701
8790587c:	aca3d008 	sw	v1,-12280(a1)
87905880:	3c038796 	lui	v1,0x8796
87905884:	34048000 	li	a0,0x8000
87905888:	3c028796 	lui	v0,0x8796
8790588c:	ac60c02c 	sw	zero,-16340(v1)
87905890:	3c038790 	lui	v1,0x8790
87905894:	ac40c024 	sw	zero,-16348(v0)
87905898:	3c058796 	lui	a1,0x8796
8790589c:	3c028796 	lui	v0,0x8796
879058a0:	246370e4 	addiu	v1,v1,28900
879058a4:	ae60c028 	sw	zero,-16344(s3)
879058a8:	aca0c030 	sw	zero,-16336(a1)
879058ac:	ac40c034 	sw	zero,-16332(v0)
879058b0:	0de4104c 	jal	87904130 <malloc>
879058b4:	aea3c01c 	sw	v1,-16356(s5)
879058b8:	3c048796 	lui	a0,0x8796
879058bc:	104001e9 	beqz	v0,87906064 <initmips+0x888>
879058c0:	ac82c020 	sw	v0,-16352(a0)
879058c4:	3c038790 	lui	v1,0x8790
879058c8:	24636d80 	addiu	v1,v1,28032
879058cc:	00003021 	move	a2,zero
879058d0:	2405001f 	li	a1,31
879058d4:	24040001 	li	a0,1
879058d8:	8c620000 	lw	v0,0(v1)
879058dc:	24630004 	addiu	v1,v1,4
879058e0:	00a21023 	subu	v0,a1,v0
879058e4:	00441004 	sllv	v0,a0,v0
879058e8:	00c23025 	or	a2,a2,v0
879058ec:	3c028790 	lui	v0,0x8790
879058f0:	24426db8 	addiu	v0,v0,28088
879058f4:	1443fff8 	bne	v0,v1,879058d8 <initmips+0xfc>
879058f8:	3c088796 	lui	t0,0x8796
879058fc:	3c038796 	lui	v1,0x8796
87905900:	ac60c050 	sw	zero,-16304(v1)
87905904:	2508c054 	addiu	t0,t0,-16300
87905908:	24070001 	li	a3,1
8790590c:	24090001 	li	t1,1
87905910:	240a0100 	li	t2,256
87905914:	34e50100 	ori	a1,a3,0x100
87905918:	09e4164e 	j	87905938 <initmips+0x15c>
8790591c:	00002021 	move	a0,zero
87905920:	00662026 	xor	a0,v1,a2
87905924:	00861026 	xor	v0,a0,a2
87905928:	30a30001 	andi	v1,a1,0x1
8790592c:	00052843 	sra	a1,a1,0x1
87905930:	10a9000a 	beq	a1,t1,8790595c <initmips+0x180>
87905934:	0043200b 	movn	a0,v0,v1
87905938:	30820001 	andi	v0,a0,0x1
8790593c:	1440fff8 	bnez	v0,87905920 <initmips+0x144>
87905940:	00041842 	srl	v1,a0,0x1
87905944:	00042042 	srl	a0,a0,0x1
87905948:	30a30001 	andi	v1,a1,0x1
8790594c:	00861026 	xor	v0,a0,a2
87905950:	00052843 	sra	a1,a1,0x1
87905954:	14a9fff8 	bne	a1,t1,87905938 <initmips+0x15c>
87905958:	0043200b 	movn	a0,v0,v1
8790595c:	24e70001 	addiu	a3,a3,1
87905960:	ad040000 	sw	a0,0(t0)
87905964:	14eaffeb 	bne	a3,t2,87905914 <initmips+0x138>
87905968:	25080004 	addiu	t0,t0,4
8790596c:	3c058790 	lui	a1,0x8790
87905970:	24a570e4 	addiu	a1,a1,28900
87905974:	2402ffff 	li	v0,-1
87905978:	3c038796 	lui	v1,0x8796
8790597c:	90a40000 	lbu	a0,0(a1)
87905980:	ac62c044 	sw	v0,-16316(v1)
87905984:	24030003 	li	v1,3
87905988:	ae63c028 	sw	v1,-16344(s3)
8790598c:	2402001f 	li	v0,31
87905990:	93c30000 	lbu	v1,0(s8)
87905994:	14820006 	bne	a0,v0,879059b0 <initmips+0x1d4>
87905998:	92c50000 	lbu	a1,0(s6)
8790599c:	2402008b 	li	v0,139
879059a0:	1062000e 	beq	v1,v0,879059dc <initmips+0x200>
879059a4:	2402009e 	li	v0,158
879059a8:	1062000c 	beq	v1,v0,879059dc <initmips+0x200>
879059ac:	00000000 	nop
879059b0:	3c048790 	lui	a0,0x8790
879059b4:	0de41286 	jal	87904a18 <tgt_puts>
879059b8:	24846fb4 	addiu	a0,a0,28596
879059bc:	24030001 	li	v1,1
879059c0:	3c048796 	lui	a0,0x8796
879059c4:	ac83c030 	sw	v1,-16336(a0)
879059c8:	3c028796 	lui	v0,0x8796
879059cc:	0de41018 	jal	87904060 <free>
879059d0:	8c44c020 	lw	a0,-16352(v0)
879059d4:	09e4161b 	j	8790586c <initmips+0x90>
879059d8:	2402ffff 	li	v0,-1
879059dc:	24020008 	li	v0,8
879059e0:	14a2019a 	bne	a1,v0,8790604c <initmips+0x870>
879059e4:	3c048790 	lui	a0,0x8790
879059e8:	92e50000 	lbu	a1,0(s7)
879059ec:	24020004 	li	v0,4
879059f0:	30a30020 	andi	v1,a1,0x20
879059f4:	1460018e 	bnez	v1,87906030 <initmips+0x854>
879059f8:	ae62c028 	sw	v0,-16344(s3)
879059fc:	30a20002 	andi	v0,a1,0x2
87905a00:	14400185 	bnez	v0,87906018 <initmips+0x83c>
87905a04:	3c048790 	lui	a0,0x8790
87905a08:	30a200c0 	andi	v0,a1,0xc0
87905a0c:	14400159 	bnez	v0,87905f74 <initmips+0x798>
87905a10:	3c038796 	lui	v1,0x8796
87905a14:	2404000a 	li	a0,10
87905a18:	30a20004 	andi	v0,a1,0x4
87905a1c:	1040000d 	beqz	v0,87905a54 <initmips+0x278>
87905a20:	ac64c028 	sw	a0,-16344(v1)
87905a24:	3c038790 	lui	v1,0x8790
87905a28:	246370e4 	addiu	v1,v1,28900
87905a2c:	9062000b 	lbu	v0,11(v1)
87905a30:	9064000a 	lbu	a0,10(v1)
87905a34:	00021200 	sll	v0,v0,0x8
87905a38:	00441025 	or	v0,v0,a0
87905a3c:	2403000c 	li	v1,12
87905a40:	3c048796 	lui	a0,0x8796
87905a44:	10400003 	beqz	v0,87905a54 <initmips+0x278>
87905a48:	ac83c028 	sw	v1,-16344(a0)
87905a4c:	2442000c 	addiu	v0,v0,12
87905a50:	ac82c028 	sw	v0,-16344(a0)
87905a54:	30a20008 	andi	v0,a1,0x8
87905a58:	1040000b 	beqz	v0,87905a88 <initmips+0x2ac>
87905a5c:	30a20010 	andi	v0,a1,0x10
87905a60:	8e64c028 	lw	a0,-16344(s3)
87905a64:	3c028790 	lui	v0,0x8790
87905a68:	244270e4 	addiu	v0,v0,28900
87905a6c:	00441821 	addu	v1,v0,a0
87905a70:	90620000 	lbu	v0,0(v1)
87905a74:	24840001 	addiu	a0,a0,1
87905a78:	1440fffd 	bnez	v0,87905a70 <initmips+0x294>
87905a7c:	24630001 	addiu	v1,v1,1
87905a80:	ae64c028 	sw	a0,-16344(s3)
87905a84:	30a20010 	andi	v0,a1,0x10
87905a88:	1040000b 	beqz	v0,87905ab8 <initmips+0x2dc>
87905a8c:	3c028796 	lui	v0,0x8796
87905a90:	8e64c028 	lw	a0,-16344(s3)
87905a94:	3c058790 	lui	a1,0x8790
87905a98:	24a570e4 	addiu	a1,a1,28900
87905a9c:	00a41821 	addu	v1,a1,a0
87905aa0:	90620000 	lbu	v0,0(v1)
87905aa4:	24840001 	addiu	a0,a0,1
87905aa8:	1440fffd 	bnez	v0,87905aa0 <initmips+0x2c4>
87905aac:	24630001 	addiu	v1,v1,1
87905ab0:	ae64c028 	sw	a0,-16344(s3)
87905ab4:	3c028796 	lui	v0,0x8796
87905ab8:	3c038796 	lui	v1,0x8796
87905abc:	3c048796 	lui	a0,0x8796
87905ac0:	ac40c02c 	sw	zero,-16340(v0)
87905ac4:	ac60c03c 	sw	zero,-16324(v1)
87905ac8:	ac80c038 	sw	zero,-16328(a0)
87905acc:	3c058796 	lui	a1,0x8796
87905ad0:	8ca8c03c 	lw	t0,-16324(a1)
87905ad4:	3c028796 	lui	v0,0x8796
87905ad8:	3c038796 	lui	v1,0x8796
87905adc:	ac40c040 	sw	zero,-16320(v0)
87905ae0:	1500010f 	bnez	t0,87905f20 <initmips+0x744>
87905ae4:	8c66c038 	lw	a2,-16328(v1)
87905ae8:	8e64c028 	lw	a0,-16344(s3)
87905aec:	8ea2c01c 	lw	v0,-16356(s5)
87905af0:	24850001 	addiu	a1,a0,1
87905af4:	00441021 	addu	v0,v0,a0
87905af8:	90430000 	lbu	v1,0(v0)
87905afc:	ae65c028 	sw	a1,-16344(s3)
87905b00:	00661825 	or	v1,v1,a2
87905b04:	00033842 	srl	a3,v1,0x1
87905b08:	30740001 	andi	s4,v1,0x1
87905b0c:	24030005 	li	v1,5
87905b10:	3c048796 	lui	a0,0x8796
87905b14:	00072882 	srl	a1,a3,0x2
87905b18:	ac85c038 	sw	a1,-16328(a0)
87905b1c:	3c048796 	lui	a0,0x8796
87905b20:	ac83c03c 	sw	v1,-16324(a0)
87905b24:	30e20003 	andi	v0,a3,0x3
87905b28:	24040002 	li	a0,2
87905b2c:	10440052 	beq	v0,a0,87905c78 <initmips+0x49c>
87905b30:	00000000 	nop
87905b34:	10400016 	beqz	v0,87905b90 <initmips+0x3b4>
87905b38:	00000000 	nop
87905b3c:	24050001 	li	a1,1
87905b40:	104500c1 	beq	v0,a1,87905e48 <initmips+0x66c>
87905b44:	24100002 	li	s0,2
87905b48:	24110001 	li	s1,1
87905b4c:	121100ef 	beq	s0,s1,87905f0c <initmips+0x730>
87905b50:	3c048790 	lui	a0,0x8790
87905b54:	2a020002 	slti	v0,s0,2
87905b58:	14400128 	bnez	v0,87905ffc <initmips+0x820>
87905b5c:	24020002 	li	v0,2
87905b60:	12020121 	beq	s0,v0,87905fe8 <initmips+0x80c>
87905b64:	3c048790 	lui	a0,0x8790
87905b68:	24020003 	li	v0,3
87905b6c:	12020108 	beq	s0,v0,87905f90 <initmips+0x7b4>
87905b70:	00000000 	nop
87905b74:	3c048790 	lui	a0,0x8790
87905b78:	0de41286 	jal	87904a18 <tgt_puts>
87905b7c:	24847088 	addiu	a0,a0,28808
87905b80:	24030001 	li	v1,1
87905b84:	3c058796 	lui	a1,0x8796
87905b88:	09e41672 	j	879059c8 <initmips+0x1ec>
87905b8c:	aca3c030 	sw	v1,-16336(a1)
87905b90:	30620007 	andi	v0,v1,0x7
87905b94:	00622023 	subu	a0,v1,v0
87905b98:	00454006 	srlv	t0,a1,v0
87905b9c:	2c830010 	sltiu	v1,a0,16
87905ba0:	3c058796 	lui	a1,0x8796
87905ba4:	10600015 	beqz	v1,87905bfc <initmips+0x420>
87905ba8:	8caac02c 	lw	t2,-16340(a1)
87905bac:	8e67c028 	lw	a3,-16344(s3)
87905bb0:	8ea2c01c 	lw	v0,-16356(s5)
87905bb4:	00802821 	move	a1,a0
87905bb8:	00473021 	addu	a2,v0,a3
87905bbc:	90c20000 	lbu	v0,0(a2)
87905bc0:	24c60001 	addiu	a2,a2,1
87905bc4:	00a21004 	sllv	v0,v0,a1
87905bc8:	24a50008 	addiu	a1,a1,8
87905bcc:	2ca30010 	sltiu	v1,a1,16
87905bd0:	1460fffa 	bnez	v1,87905bbc <initmips+0x3e0>
87905bd4:	01024025 	or	t0,t0,v0
87905bd8:	2403000f 	li	v1,15
87905bdc:	00641023 	subu	v0,v1,a0
87905be0:	000210c2 	srl	v0,v0,0x3
87905be4:	24e30001 	addiu	v1,a3,1
87905be8:	00431821 	addu	v1,v0,v1
87905bec:	24840008 	addiu	a0,a0,8
87905bf0:	000210c0 	sll	v0,v0,0x3
87905bf4:	00822021 	addu	a0,a0,v0
87905bf8:	ae63c028 	sw	v1,-16344(s3)
87905bfc:	2489fff0 	addiu	t1,a0,-16
87905c00:	2d220010 	sltiu	v0,t1,16
87905c04:	00083c02 	srl	a3,t0,0x10
87905c08:	10400015 	beqz	v0,87905c60 <initmips+0x484>
87905c0c:	3108ffff 	andi	t0,t0,0xffff
87905c10:	8e6bc028 	lw	t3,-16344(s3)
87905c14:	8ea2c01c 	lw	v0,-16356(s5)
87905c18:	01202821 	move	a1,t1
87905c1c:	004b3021 	addu	a2,v0,t3
87905c20:	90c20000 	lbu	v0,0(a2)
87905c24:	24c60001 	addiu	a2,a2,1
87905c28:	00a21004 	sllv	v0,v0,a1
87905c2c:	24a50008 	addiu	a1,a1,8
87905c30:	2ca30010 	sltiu	v1,a1,16
87905c34:	1460fffa 	bnez	v1,87905c20 <initmips+0x444>
87905c38:	00e23825 	or	a3,a3,v0
87905c3c:	2405001f 	li	a1,31
87905c40:	00a41023 	subu	v0,a1,a0
87905c44:	000210c2 	srl	v0,v0,0x3
87905c48:	25630001 	addiu	v1,t3,1
87905c4c:	00621821 	addu	v1,v1,v0
87905c50:	25240008 	addiu	a0,t1,8
87905c54:	000210c0 	sll	v0,v0,0x3
87905c58:	00824821 	addu	t1,a0,v0
87905c5c:	ae63c028 	sw	v1,-16344(s3)
87905c60:	00071027 	nor	v0,zero,a3
87905c64:	3042ffff 	andi	v0,v0,0xffff
87905c68:	1102007e 	beq	t0,v0,87905e64 <initmips+0x688>
87905c6c:	24100001 	li	s0,1
87905c70:	09e416d3 	j	87905b4c <initmips+0x370>
87905c74:	24110001 	li	s1,1
87905c78:	0de41418 	jal	87905060 <inflate_dynamic>
87905c7c:	00000000 	nop
87905c80:	00408021 	move	s0,v0
87905c84:	1600ffb1 	bnez	s0,87905b4c <initmips+0x370>
87905c88:	24110001 	li	s1,1
87905c8c:	1280ff90 	beqz	s4,87905ad0 <initmips+0x2f4>
87905c90:	3c058796 	lui	a1,0x8796
87905c94:	3c028796 	lui	v0,0x8796
87905c98:	8c43c03c 	lw	v1,-16324(v0)
87905c9c:	2c620008 	sltiu	v0,v1,8
87905ca0:	14400009 	bnez	v0,87905cc8 <initmips+0x4ec>
87905ca4:	8e64c028 	lw	a0,-16344(s3)
87905ca8:	2463fff8 	addiu	v1,v1,-8
87905cac:	000310c2 	srl	v0,v1,0x3
87905cb0:	2484ffff 	addiu	a0,a0,-1
87905cb4:	00822023 	subu	a0,a0,v0
87905cb8:	30630007 	andi	v1,v1,0x7
87905cbc:	3c028796 	lui	v0,0x8796
87905cc0:	ac43c03c 	sw	v1,-16324(v0)
87905cc4:	ae64c028 	sw	a0,-16344(s3)
87905cc8:	0de41296 	jal	87904a58 <flush_window>
87905ccc:	00000000 	nop
87905cd0:	8e63c028 	lw	v1,-16344(s3)
87905cd4:	8ea4c01c 	lw	a0,-16356(s5)
87905cd8:	3c058796 	lui	a1,0x8796
87905cdc:	00831021 	addu	v0,a0,v1
87905ce0:	8caac044 	lw	t2,-16316(a1)
87905ce4:	90450001 	lbu	a1,1(v0)
87905ce8:	90490000 	lbu	t1,0(v0)
87905cec:	90460002 	lbu	a2,2(v0)
87905cf0:	90470003 	lbu	a3,3(v0)
87905cf4:	00052a00 	sll	a1,a1,0x8
87905cf8:	00a92825 	or	a1,a1,t1
87905cfc:	00063400 	sll	a2,a2,0x10
87905d00:	00073e00 	sll	a3,a3,0x18
87905d04:	00a62825 	or	a1,a1,a2
87905d08:	00404021 	move	t0,v0
87905d0c:	00a72825 	or	a1,a1,a3
87905d10:	000a5027 	nor	t2,zero,t2
87905d14:	24670008 	addiu	a3,v1,8
87905d18:	90490004 	lbu	t1,4(v0)
87905d1c:	91030006 	lbu	v1,6(t0)
87905d20:	90420005 	lbu	v0,5(v0)
87905d24:	91040007 	lbu	a0,7(t0)
87905d28:	14aa00a8 	bne	a1,t2,87905fcc <initmips+0x7f0>
87905d2c:	ae67c028 	sw	a3,-16344(s3)
87905d30:	00021200 	sll	v0,v0,0x8
87905d34:	00031c00 	sll	v1,v1,0x10
87905d38:	00491025 	or	v0,v0,t1
87905d3c:	3c058796 	lui	a1,0x8796
87905d40:	00431025 	or	v0,v0,v1
87905d44:	00042600 	sll	a0,a0,0x18
87905d48:	8ca3c034 	lw	v1,-16332(a1)
87905d4c:	00441025 	or	v0,v0,a0
87905d50:	14430097 	bne	v0,v1,87905fb0 <initmips+0x7d4>
87905d54:	3c058796 	lui	a1,0x8796
87905d58:	0de41018 	jal	87904060 <free>
87905d5c:	8ca4c020 	lw	a0,-16352(a1)
87905d60:	3c048790 	lui	a0,0x8790
87905d64:	0de41286 	jal	87904a18 <tgt_puts>
87905d68:	248470c8 	addiu	a0,a0,28872
87905d6c:	3c03870d 	lui	v1,0x870d
87905d70:	3c028710 	lui	v0,0x8710
87905d74:	34637d18 	ori	v1,v1,0x7d18
87905d78:	34426814 	ori	v0,v0,0x6814
87905d7c:	ac600000 	sw	zero,0(v1)
87905d80:	24630004 	addiu	v1,v1,4
87905d84:	1462fffd 	bne	v1,v0,87905d7c <initmips+0x5a0>
87905d88:	00000000 	nop
87905d8c:	3c028700 	lui	v0,0x8700
87905d90:	3442f000 	ori	v0,v0,0xf000
87905d94:	3c038701 	lui	v1,0x8701
87905d98:	a0400000 	sb	zero,0(v0)
87905d9c:	24420001 	addiu	v0,v0,1
87905da0:	1443fffd 	bne	v0,v1,87905d98 <initmips+0x5bc>
87905da4:	00000000 	nop
87905da8:	3c058000 	lui	a1,0x8000
87905dac:	24a61000 	addiu	a2,a1,4096
87905db0:	bca10000 	cache	0x1,0(a1)
87905db4:	bca11000 	cache	0x1,4096(a1)
87905db8:	bca12000 	cache	0x1,8192(a1)
87905dbc:	bca13000 	cache	0x1,12288(a1)
87905dc0:	bca00000 	cache	0x0,0(a1)
87905dc4:	bca01000 	cache	0x0,4096(a1)
87905dc8:	bca02000 	cache	0x0,8192(a1)
87905dcc:	bca03000 	cache	0x0,12288(a1)
87905dd0:	20a50020 	addi	a1,a1,32
87905dd4:	14a6fff6 	bne	a1,a2,87905db0 <initmips+0x5d4>
87905dd8:	00000000 	nop
87905ddc:	00000000 	nop
87905de0:	8fa4003c 	lw	a0,60(sp)
87905de4:	8fa50038 	lw	a1,56(sp)
87905de8:	00a5200b 	movn	a0,a1,a1
87905dec:	00801821 	move	v1,a0
87905df0:	3c1d8700 	lui	sp,0x8700
87905df4:	37bdc000 	ori	sp,sp,0xc000
87905df8:	3c028708 	lui	v0,0x8708
87905dfc:	3442d6f0 	ori	v0,v0,0xd6f0
87905e00:	0040f809 	jalr	v0
87905e04:	00602021 	move	a0,v1
87905e08:	00000000 	nop
87905e0c:	1000ffff 	b	87905e0c <initmips+0x630>
87905e10:	00000000 	nop
87905e14:	00000000 	nop
87905e18:	8fbf0034 	lw	ra,52(sp)
87905e1c:	8fbe0030 	lw	s8,48(sp)
87905e20:	8fb7002c 	lw	s7,44(sp)
87905e24:	8fb60028 	lw	s6,40(sp)
87905e28:	8fb50024 	lw	s5,36(sp)
87905e2c:	8fb40020 	lw	s4,32(sp)
87905e30:	8fb3001c 	lw	s3,28(sp)
87905e34:	8fb20018 	lw	s2,24(sp)
87905e38:	8fb10014 	lw	s1,20(sp)
87905e3c:	8fb00010 	lw	s0,16(sp)
87905e40:	03e00008 	jr	ra
87905e44:	27bd0038 	addiu	sp,sp,56
87905e48:	0de41590 	jal	87905640 <inflate_fixed>
87905e4c:	00000000 	nop
87905e50:	00408021 	move	s0,v0
87905e54:	1200ff8d 	beqz	s0,87905c8c <initmips+0x4b0>
87905e58:	24110001 	li	s1,1
87905e5c:	09e416d3 	j	87905b4c <initmips+0x370>
87905e60:	00000000 	nop
87905e64:	00078c02 	srl	s1,a3,0x10
87905e68:	1100001f 	beqz	t0,87905ee8 <initmips+0x70c>
87905e6c:	2530fff0 	addiu	s0,t1,-16
87905e70:	09e417a1 	j	87905e84 <initmips+0x6a8>
87905e74:	2512ffff 	addiu	s2,t0,-1
87905e78:	1240001b 	beqz	s2,87905ee8 <initmips+0x70c>
87905e7c:	00118a02 	srl	s1,s1,0x8
87905e80:	2652ffff 	addiu	s2,s2,-1
87905e84:	2e020008 	sltiu	v0,s0,8
87905e88:	10400009 	beqz	v0,87905eb0 <initmips+0x6d4>
87905e8c:	8e64c028 	lw	a0,-16344(s3)
87905e90:	8ea2c01c 	lw	v0,-16356(s5)
87905e94:	24850001 	addiu	a1,a0,1
87905e98:	00441021 	addu	v0,v0,a0
87905e9c:	90430000 	lbu	v1,0(v0)
87905ea0:	ae65c028 	sw	a1,-16344(s3)
87905ea4:	02031804 	sllv	v1,v1,s0
87905ea8:	02238825 	or	s1,s1,v1
87905eac:	26100008 	addiu	s0,s0,8
87905eb0:	3c038796 	lui	v1,0x8796
87905eb4:	8c62c020 	lw	v0,-16352(v1)
87905eb8:	34048000 	li	a0,0x8000
87905ebc:	004a1021 	addu	v0,v0,t2
87905ec0:	254a0001 	addiu	t2,t2,1
87905ec4:	2610fff8 	addiu	s0,s0,-8
87905ec8:	1544ffeb 	bne	t2,a0,87905e78 <initmips+0x69c>
87905ecc:	a0510000 	sb	s1,0(v0)
87905ed0:	3c058796 	lui	a1,0x8796
87905ed4:	acaac02c 	sw	t2,-16340(a1)
87905ed8:	0de41296 	jal	87904a58 <flush_window>
87905edc:	00118a02 	srl	s1,s1,0x8
87905ee0:	1640ffe7 	bnez	s2,87905e80 <initmips+0x6a4>
87905ee4:	00005021 	move	t2,zero
87905ee8:	3c028796 	lui	v0,0x8796
87905eec:	3c038796 	lui	v1,0x8796
87905ef0:	3c048796 	lui	a0,0x8796
87905ef4:	ac4ac02c 	sw	t2,-16340(v0)
87905ef8:	ac71c038 	sw	s1,-16328(v1)
87905efc:	1280fef3 	beqz	s4,87905acc <initmips+0x2f0>
87905f00:	ac90c03c 	sw	s0,-16324(a0)
87905f04:	09e41726 	j	87905c98 <initmips+0x4bc>
87905f08:	3c028796 	lui	v0,0x8796
87905f0c:	0de41286 	jal	87904a18 <tgt_puts>
87905f10:	24847030 	addiu	a0,a0,28720
87905f14:	3c028796 	lui	v0,0x8796
87905f18:	09e41672 	j	879059c8 <initmips+0x1ec>
87905f1c:	ac50c030 	sw	s0,-16336(v0)
87905f20:	2509ffff 	addiu	t1,t0,-1
87905f24:	2d220002 	sltiu	v0,t1,2
87905f28:	00063842 	srl	a3,a2,0x1
87905f2c:	1040001e 	beqz	v0,87905fa8 <initmips+0x7cc>
87905f30:	30d40001 	andi	s4,a2,0x1
87905f34:	8e64c028 	lw	a0,-16344(s3)
87905f38:	8ea2c01c 	lw	v0,-16356(s5)
87905f3c:	24050002 	li	a1,2
87905f40:	00441021 	addu	v0,v0,a0
87905f44:	00a81823 	subu	v1,a1,t0
87905f48:	90450000 	lbu	a1,0(v0)
87905f4c:	000318c2 	srl	v1,v1,0x3
87905f50:	24840001 	addiu	a0,a0,1
87905f54:	00832021 	addu	a0,a0,v1
87905f58:	01252804 	sllv	a1,a1,t1
87905f5c:	25020005 	addiu	v0,t0,5
87905f60:	000318c0 	sll	v1,v1,0x3
87905f64:	00e53825 	or	a3,a3,a1
87905f68:	ae64c028 	sw	a0,-16344(s3)
87905f6c:	09e416c4 	j	87905b10 <initmips+0x334>
87905f70:	00431821 	addu	v1,v0,v1
87905f74:	3c048790 	lui	a0,0x8790
87905f78:	0de41286 	jal	87904a18 <tgt_puts>
87905f7c:	24847014 	addiu	a0,a0,28692
87905f80:	24030001 	li	v1,1
87905f84:	3c058796 	lui	a1,0x8796
87905f88:	09e41672 	j	879059c8 <initmips+0x1ec>
87905f8c:	aca3c030 	sw	v1,-16336(a1)
87905f90:	3c048790 	lui	a0,0x8790
87905f94:	0de41286 	jal	87904a18 <tgt_puts>
87905f98:	24847078 	addiu	a0,a0,28792
87905f9c:	3c048796 	lui	a0,0x8796
87905fa0:	09e41672 	j	879059c8 <initmips+0x1ec>
87905fa4:	ac91c030 	sw	s1,-16336(a0)
87905fa8:	09e416c4 	j	87905b10 <initmips+0x334>
87905fac:	2503fffd 	addiu	v1,t0,-3
87905fb0:	3c048790 	lui	a0,0x8790
87905fb4:	0de41286 	jal	87904a18 <tgt_puts>
87905fb8:	248470b8 	addiu	a0,a0,28856
87905fbc:	24030001 	li	v1,1
87905fc0:	3c028796 	lui	v0,0x8796
87905fc4:	09e41672 	j	879059c8 <initmips+0x1ec>
87905fc8:	ac43c030 	sw	v1,-16336(v0)
87905fcc:	3c048790 	lui	a0,0x8790
87905fd0:	0de41286 	jal	87904a18 <tgt_puts>
87905fd4:	248470ac 	addiu	a0,a0,28844
87905fd8:	24030001 	li	v1,1
87905fdc:	3c028796 	lui	v0,0x8796
87905fe0:	09e41672 	j	879059c8 <initmips+0x1ec>
87905fe4:	ac43c030 	sw	v1,-16336(v0)
87905fe8:	0de41286 	jal	87904a18 <tgt_puts>
87905fec:	24847054 	addiu	a0,a0,28756
87905ff0:	3c038796 	lui	v1,0x8796
87905ff4:	09e41672 	j	879059c8 <initmips+0x1ec>
87905ff8:	ac71c030 	sw	s1,-16336(v1)
87905ffc:	1600fede 	bnez	s0,87905b78 <initmips+0x39c>
87906000:	3c048790 	lui	a0,0x8790
87906004:	3c038796 	lui	v1,0x8796
87906008:	0de41018 	jal	87904060 <free>
8790600c:	8c64c020 	lw	a0,-16352(v1)
87906010:	09e4161b 	j	8790586c <initmips+0x90>
87906014:	2402ffff 	li	v0,-1
87906018:	0de41286 	jal	87904a18 <tgt_puts>
8790601c:	24847000 	addiu	a0,a0,28672
87906020:	24030001 	li	v1,1
87906024:	3c048796 	lui	a0,0x8796
87906028:	09e41672 	j	879059c8 <initmips+0x1ec>
8790602c:	ac83c030 	sw	v1,-16336(a0)
87906030:	3c048790 	lui	a0,0x8790
87906034:	0de41286 	jal	87904a18 <tgt_puts>
87906038:	24846fec 	addiu	a0,a0,28652
8790603c:	24030001 	li	v1,1
87906040:	3c028796 	lui	v0,0x8796
87906044:	09e41672 	j	879059c8 <initmips+0x1ec>
87906048:	ac43c030 	sw	v1,-16336(v0)
8790604c:	0de41286 	jal	87904a18 <tgt_puts>
87906050:	24846fcc 	addiu	a0,a0,28620
87906054:	24030001 	li	v1,1
87906058:	3c058796 	lui	a1,0x8796
8790605c:	09e41672 	j	879059c8 <initmips+0x1ec>
87906060:	aca3c030 	sw	v1,-16336(a1)
87906064:	3c048790 	lui	a0,0x8790
87906068:	0de41286 	jal	87904a18 <tgt_puts>
8790606c:	24846f8c 	addiu	a0,a0,28556
87906070:	3c038796 	lui	v1,0x8796
87906074:	0de41018 	jal	87904060 <free>
87906078:	8c64c01c 	lw	a0,-16356(v1)
8790607c:	09e4161b 	j	8790586c <initmips+0x90>
87906080:	2402ffff 	li	v0,-1
	...
879060a0:	41500a0d 	0x41500a0d
879060a4:	2143494e 	addi	v1,t2,18766
879060a8:	656e5520 	0x656e5520
879060ac:	63657078 	0x63657078
879060b0:	20646574 	addi	a0,v1,25972
879060b4:	68636143 	0x68636143
879060b8:	72452065 	0x72452065
879060bc:	20726f72 	addi	s2,v1,28530
879060c0:	65637865 	0x65637865
879060c4:	6f697470 	0x6f697470
879060c8:	0020216e 	0x20216e
879060cc:	41430a0d 	0x41430a0d
879060d0:	3d455355 	0x3d455355
879060d4:	530a0d00 	beql	t8,t2,879094d8 <biosdata+0x23f4>
879060d8:	55544154 	bnel	t2,s4,8791662c <biosdata+0xf548>
879060dc:	0d003d53 	jal	8400f54c <stack-0x38ecab4>
879060e0:	5252450a 	beql	s2,s2,8791750c <biosdata+0x10428>
879060e4:	4350524f 	c0	0x150524f
879060e8:	0a0d003d 	j	883400f4 <_gp+0x9dc0f4>
879060ec:	3d435045 	0x3d435045
879060f0:	420a0d00 	c0	0xa0d00
879060f4:	44414441 	0x44414441
879060f8:	003d5244 	0x3d5244
879060fc:	4d500a0d 	0x4d500a0d
87906100:	30324e4f 	andi	s2,at,0x4e4f
87906104:	4d203030 	0x4d203030
87906108:	20535049 	addi	s3,v0,20553
8790610c:	74696e49 	jalx	81a5b924 <stack-0x5ea06dc>
87906110:	696c6169 	0x696c6169
87906114:	676e697a 	0x676e697a
87906118:	7453202e 	jalx	814c80b8 <stack-0x6433f48>
8790611c:	62646e61 	0x62646e61
87906120:	2e2e2e79 	sltiu	t6,s1,11897
87906124:	45000a0d 	bc1f	8790895c <biosdata+0x1878>
87906128:	524f5252 	beql	s2,t7,8791aa74 <biosdata+0x13990>
8790612c:	003d4350 	0x3d4350
87906130:	4e4f4320 	c3	0x4f4320
87906134:	3d474946 	0x3d474946
87906138:	000a0d00 	sll	at,t2,0x14
8790613c:	49525020 	0x49525020
87906140:	0d003d44 	jal	8400f510 <stack-0x38ecaf0>
87906144:	4444000a 	0x4444000a
87906148:	63203252 	0x63203252
8790614c:	69666e6f 	0x69666e6f
87906150:	65622067 	0x65622067
87906154:	5f6e6967 	0x5f6e6967
87906158:	000a0d32 	tlt	zero,t2,0x34
8790615c:	32524444 	andi	s2,s2,0x4444
87906160:	6e6f6320 	0x6e6f6320
87906164:	20676966 	addi	a3,v1,26982
87906168:	0d646e65 	jal	8591b994 <stack-0x1fe066c>
8790616c:	6e49000a 	0x6e49000a
87906170:	63207469 	0x63207469
87906174:	65686361 	0x65686361
87906178:	2e2e2e73 	sltiu	t6,s1,11891
8790617c:	67000a0d 	0x67000a0d
87906180:	6f73646f 	0x6f73646f
87906184:	6320316e 	0x6320316e
87906188:	65686361 	0x65686361
8790618c:	6f662073 	0x6f662073
87906190:	0d646e75 	jal	8591b9d4 <stack-0x1fe062c>
87906194:	6e49000a 	0x6e49000a
87906198:	63207469 	0x63207469
8790619c:	65686361 	0x65686361
879061a0:	6f642073 	0x6f642073
879061a4:	202c656e 	addi	t4,at,25966
879061a8:	20676663 	addi	a3,v1,26211
879061ac:	0d00203d 	jal	840080f4 <stack-0x38f3f0c>
879061b0:	000a0d0a 	0xa0d0a
879061b4:	49504341 	0x49504341
879061b8:	4e4f435f 	c3	0x4f435f
879061bc:	54584554 	bnel	v0,t8,87917710 <biosdata+0x1062c>
879061c0:	0a0d003d 	j	883400f4 <_gp+0x9dc0f4>
879061c4:	50434100 	beql	v0,v1,879165c8 <biosdata+0xf4e4>
879061c8:	45525f49 	0x45525f49
879061cc:	454d5553 	0x454d5553
879061d0:	62000a0d 	0x62000a0d
879061d4:	6e696765 	0x6e696765
879061d8:	73657420 	0x73657420
879061dc:	000a0d74 	teq	zero,t2,0x35
879061e0:	73657270 	0x73657270
879061e4:	62672073 	0x62672073
879061e8:	206f7420 	addi	t7,v1,29728
879061ec:	746f6f62 	jalx	81bdbd88 <stack-0x5d20278>
879061f0:	72700a0d 	0x72700a0d
879061f4:	73737365 	0x73737365
879061f8:	66206820 	0x66206820
879061fc:	6820726f 	0x6820726f
87906200:	0d706c65 	jal	85c1b194 <stack-0x1ce0e6c>
87906204:	3a41000a 	xori	at,s2,0xa
87906208:	74697277 	jalx	81a5c9dc <stack-0x5e9f624>
8790620c:	656e6f65 	0x656e6f65
87906210:	7365742d 	0x7365742d
87906214:	656e6f74 	0x656e6f74
87906218:	3a420a0d 	xori	v0,s2,0xa0d
8790621c:	74697277 	jalx	81a5c9dc <stack-0x5e9f624>
87906220:	6d6f7365 	0x6d6f7365
87906224:	742d2b65 	jalx	80b4ad94 <stack-0x6db126c>
87906228:	73747365 	0x73747365
8790622c:	2d656d6f 	sltiu	a1,t3,28015
87906230:	430a0d2d 	c0	0x10a0d2d
87906234:	6972773a 	0x6972773a
87906238:	6f736574 	0x6f736574
8790623c:	742d656d 	jalx	80b595b4 <stack-0x6da2a4c>
87906240:	73747365 	0x73747365
87906244:	2d656d6f 	sltiu	a1,t3,28015
87906248:	0d6d6f72 	jal	85b5bdc8 <stack-0x1da0238>
8790624c:	773a440a 	jalx	8ce91028 <_gp+0x552d028>
87906250:	65746972 	0x65746972
87906254:	2d6c6c61 	sltiu	t4,t3,27745
87906258:	74736574 	jalx	81cd95d0 <stack-0x5c22a30>
8790625c:	0d6c6c61 	jal	85b1b184 <stack-0x1de0e7c>
87906260:	773a450a 	jalx	8ce91428 <_gp+0x552d428>
87906264:	65746972 	0x65746972
87906268:	656d6f73 	0x656d6f73
8790626c:	7365742d 	0x7365742d
87906270:	6d6f7374 	0x6d6f7374
87906274:	61722d65 	0x61722d65
87906278:	460a0d6d 	c1	0xa0d6d
8790627c:	6972773a 	0x6972773a
87906280:	6c616574 	0x6c616574
87906284:	65742d6c 	0x65742d6c
87906288:	6c617473 	0x6c617473
8790628c:	61722d6c 	0x61722d6c
87906290:	470a0d6d 	c1	0x10a0d6d
87906294:	706f633a 	0x706f633a
87906298:	73657479 	0x73657479
8790629c:	480a0d74 	0x480a0d74
879062a0:	6972773a 	0x6972773a
879062a4:	6f736574 	0x6f736574
879062a8:	6572656d 	0x6572656d
879062ac:	73726576 	0x73726576
879062b0:	65742d65 	0x65742d65
879062b4:	6f737473 	0x6f737473
879062b8:	722d656d 	0x722d656d
879062bc:	0a0d6d6f 	j	8835b5bc <_gp+0x9f75bc>
879062c0:	72773a49 	0x72773a49
879062c4:	73657469 	0x73657469
879062c8:	72656d6f 	0x72656d6f
879062cc:	72657665 	0x72657665
879062d0:	742d6573 	jalx	80b595cc <stack-0x6da2a34>
879062d4:	73747365 	0x73747365
879062d8:	2d656d6f 	sltiu	a1,t3,28015
879062dc:	0d6d6172 	jal	85b585c8 <stack-0x1da3a38>
879062e0:	723a7a0a 	0x723a7a0a
879062e4:	20646165 	addi	a0,v1,24933
879062e8:	64646140 	0x64646140
879062ec:	730a0d72 	0x730a0d72
879062f0:	6972773a 	0x6972773a
879062f4:	0a0d6574 	j	883595d0 <_gp+0x9f55d0>
879062f8:	72773a76 	0x72773a76
879062fc:	20657469 	addi	a1,v1,29801
87906300:	6e656874 	0x6e656874
87906304:	61657220 	0x61657220
87906308:	61402064 	0x61402064
8790630c:	0d726464 	jal	85c99190 <stack-0x1c62e70>
87906310:	723a670a 	0x723a670a
87906314:	73657477 	0x73657477
87906318:	6e0a0d74 	0x6e0a0d74
8790631c:	6972773a 	0x6972773a
87906320:	31206574 	andi	zero,t1,0x6574
87906324:	0a0d4d36 	j	883534d8 <_gp+0x9ef4d8>
87906328:	72773a6a 	0x72773a6a
8790632c:	20657469 	addi	a1,v1,29801
87906330:	6f742030 	0x6f742030
87906334:	30306120 	andi	s0,at,0x6120
87906338:	30303030 	andi	s0,at,0x3030
8790633c:	640a0d30 	0x640a0d30
87906340:	6265643a 	0x6265643a
87906344:	0a0d6775 	j	88359dd4 <_gp+0x9f5dd4>
87906348:	6f623a62 	0x6f623a62
8790634c:	0a0d746f 	j	8835d1bc <_gp+0x9f91bc>
87906350:	73655400 	0x73655400
87906354:	676e6974 	0x676e6974
87906358:	6d656d20 	0x6d656d20
8790635c:	2079726f 	addi	t9,v1,29295
87906360:	0d776f6e 	jal	85ddbdb8 <stack-0x1b20248>
87906364:	000d000a 	movz	zero,zero,t5
87906368:	74736554 	jalx	81cd9550 <stack-0x5c22ab0>
8790636c:	20676e69 	addi	a3,v1,28265
87906370:	2e2e6b6f 	sltiu	t6,s1,27503
87906374:	000a0d2e 	0xa0d2e
87906378:	654d0a0d 	0x654d0a0d
8790637c:	79726f6d 	0x79726f6d
87906380:	73657420 	0x73657420
87906384:	61662074 	0x61662074
87906388:	64656c69 	0x64656c69
8790638c:	20746120 	addi	s4,v1,24864
87906390:	570a0d00 	bnel	t8,t2,87909794 <biosdata+0x26b0>
87906394:	65746972 	0x65746972
87906398:	0a0d003d 	j	883400f4 <_gp+0x9dc0f4>
8790639c:	64616552 	0x64616552
879063a0:	0d003d20 	jal	8400f480 <stack-0x38ecb80>
879063a4:	726f780a 	0x726f780a
879063a8:	0d003d20 	jal	8400f480 <stack-0x38ecb80>
879063ac:	6c6c610a 	0x6c6c610a
879063b0:	6f727265 	0x6f727265
879063b4:	003d2072 	tlt	at,sp,0x81
879063b8:	74736554 	jalx	81cd9550 <stack-0x5c22ab0>
879063bc:	20676e69 	addi	a3,v1,28265
879063c0:	6f6d656d 	0x6f6d656d
879063c4:	6e207972 	0x6e207972
879063c8:	0a0d776f 	j	8835ddbc <_gp+0x9f9dbc>
879063cc:	000a0d00 	sll	at,t2,0x14
879063d0:	65540a0d 	0x65540a0d
879063d4:	6e697473 	0x6e697473
879063d8:	6b6f2067 	0x6b6f2067
879063dc:	0d000a0d 	jal	84002834 <stack-0x38f97cc>
879063e0:	6d654d0a 	0x6d654d0a
879063e4:	2079726f 	addi	t9,v1,29295
879063e8:	74736574 	jalx	81cd95d0 <stack-0x5c22a30>
879063ec:	69616620 	0x69616620
879063f0:	2064656c 	addi	a0,v1,25964
879063f4:	00207461 	0x207461
879063f8:	72570a0d 	0x72570a0d
879063fc:	3d657469 	0x3d657469
87906400:	520a0d00 	beql	s0,t2,87909804 <biosdata+0x2720>
87906404:	20646165 	addi	a0,v1,24933
87906408:	0a0d003d 	j	883400f4 <_gp+0x9dc0f4>
8790640c:	20726f78 	addi	s2,v1,28536
87906410:	0a0d003d 	j	883400f4 <_gp+0x9dc0f4>
87906414:	656c6c61 	0x656c6c61
87906418:	726f7272 	0x726f7272
8790641c:	54003d20 	bnezl	zero,879158a0 <biosdata+0xe7bc>
87906420:	69747365 	0x69747365
87906424:	6d20676e 	0x6d20676e
87906428:	726f6d65 	0x726f6d65
8790642c:	6f6e2079 	0x6f6e2079
87906430:	000a0d77 	0xa0d77
87906434:	0a0d000d 	j	88340034 <_gp+0x9dc034>
87906438:	74736554 	jalx	81cd9550 <stack-0x5c22ab0>
8790643c:	20676e69 	addi	a3,v1,28265
87906440:	0a0d6b6f 	j	8835adbc <_gp+0x9f6dbc>
87906444:	4d0a0d00 	0x4d0a0d00
87906448:	726f6d65 	0x726f6d65
8790644c:	65742079 	0x65742079
87906450:	66207473 	0x66207473
87906454:	656c6961 	0x656c6961
87906458:	74612064 	jalx	81848190 <stack-0x60b3e70>
8790645c:	0a0d0020 	j	88340080 <_gp+0x9dc080>
87906460:	74697257 	jalx	81a5c95c <stack-0x5e9f6a4>
87906464:	0d003d65 	jal	8400f594 <stack-0x38eca6c>
87906468:	6165520a 	0x6165520a
8790646c:	003d2064 	0x3d2064
87906470:	6f780a0d 	0x6f780a0d
87906474:	003d2072 	tlt	at,sp,0x81
87906478:	6c610a0d 	0x6c610a0d
8790647c:	7272656c 	0x7272656c
87906480:	3d20726f 	0x3d20726f
87906484:	73655400 	0x73655400
87906488:	676e6974 	0x676e6974
8790648c:	6d656d20 	0x6d656d20
87906490:	2079726f 	addi	t9,v1,29295
87906494:	0d776f6e 	jal	85ddbdb8 <stack-0x1b20248>
87906498:	000d000a 	movz	zero,zero,t5
8790649c:	0d000a0d 	jal	84002834 <stack-0x38f97cc>
879064a0:	000a0d00 	sll	at,t2,0x14
879064a4:	0a0d000d 	j	88340034 <_gp+0x9dc034>
879064a8:	0d000d00 	jal	84003400 <stack-0x38f8c00>
879064ac:	0a0d000a 	j	88340028 <_gp+0x9dc028>
879064b0:	74736554 	jalx	81cd9550 <stack-0x5c22ab0>
879064b4:	20676e69 	addi	a3,v1,28265
879064b8:	0a0d6b6f 	j	8835adbc <_gp+0x9f6dbc>
879064bc:	4d0a0d00 	0x4d0a0d00
879064c0:	726f6d65 	0x726f6d65
879064c4:	65742079 	0x65742079
879064c8:	66207473 	0x66207473
879064cc:	656c6961 	0x656c6961
879064d0:	74612064 	jalx	81848190 <stack-0x60b3e70>
879064d4:	0a0d0020 	j	88340080 <_gp+0x9dc080>
879064d8:	74697257 	jalx	81a5c95c <stack-0x5e9f6a4>
879064dc:	0d003d65 	jal	8400f594 <stack-0x38eca6c>
879064e0:	6165520a 	0x6165520a
879064e4:	003d2064 	0x3d2064
879064e8:	6f780a0d 	0x6f780a0d
879064ec:	003d2072 	tlt	at,sp,0x81
879064f0:	6c610a0d 	0x6c610a0d
879064f4:	7272656c 	0x7272656c
879064f8:	3d20726f 	0x3d20726f
879064fc:	706f6300 	0x706f6300
87906500:	6f742079 	0x6f742079
87906504:	6d617220 	0x6d617220
87906508:	776f6e20 	jalx	8dbdb880 <_gp+0x6277880>
8790650c:	000a0d2e 	0xa0d2e
87906510:	79706f63 	0x79706f63
87906514:	776f6420 	jalx	8dbd9080 <_gp+0x6275080>
87906518:	6f6e206e 	0x6f6e206e
8790651c:	000a0d77 	0xa0d77
87906520:	706d6f63 	0x706d6f63
87906524:	0d657261 	jal	8595c984 <stack-0x1f9f67c>
87906528:	6f63000a 	0x6f63000a
8790652c:	7261706d 	0x7261706d
87906530:	6f642065 	0x6f642065
87906534:	6a2c656e 	0x6a2c656e
87906538:	0d706d75 	jal	85c1b5d4 <stack-0x1ce0a2c>
8790653c:	6f63000a 	0x6f63000a
87906540:	66207970 	0x66207970
87906544:	656c6961 	0x656c6961
87906548:	74732c64 	jalx	81ccb190 <stack-0x5c30e70>
8790654c:	0a0d706f 	j	8835c1bc <_gp+0x9f81bc>
87906550:	73655400 	0x73655400
87906554:	676e6974 	0x676e6974
87906558:	6d656d20 	0x6d656d20
8790655c:	2079726f 	addi	t9,v1,29295
87906560:	0d776f6e 	jal	85ddbdb8 <stack-0x1b20248>
87906564:	000d000a 	movz	zero,zero,t5
87906568:	65540a0d 	0x65540a0d
8790656c:	6e697473 	0x6e697473
87906570:	6b6f2067 	0x6b6f2067
87906574:	0d000a0d 	jal	84002834 <stack-0x38f97cc>
87906578:	6d654d0a 	0x6d654d0a
8790657c:	2079726f 	addi	t9,v1,29295
87906580:	74736574 	jalx	81cd95d0 <stack-0x5c22a30>
87906584:	69616620 	0x69616620
87906588:	2064656c 	addi	a0,v1,25964
8790658c:	00207461 	0x207461
87906590:	72570a0d 	0x72570a0d
87906594:	3d657469 	0x3d657469
87906598:	520a0d00 	beql	s0,t2,8790999c <biosdata+0x28b8>
8790659c:	20646165 	addi	a0,v1,24933
879065a0:	0a0d003d 	j	883400f4 <_gp+0x9dc0f4>
879065a4:	20726f78 	addi	s2,v1,28536
879065a8:	0a0d003d 	j	883400f4 <_gp+0x9dc0f4>
879065ac:	656c6c61 	0x656c6c61
879065b0:	726f7272 	0x726f7272
879065b4:	62003d20 	0x62003d20
879065b8:	6e696765 	0x6e696765
879065bc:	706f6320 	0x706f6320
879065c0:	000a0d79 	0xa0d79
879065c4:	79706f63 	0x79706f63
879065c8:	69616620 	0x69616620
879065cc:	2c64656c 	sltiu	a0,v1,25964
879065d0:	706f7473 	0x706f7473
879065d4:	54000a0d 	bnezl	zero,87908e0c <biosdata+0x1d28>
879065d8:	69747365 	0x69747365
879065dc:	6d20676e 	0x6d20676e
879065e0:	726f6d65 	0x726f6d65
879065e4:	6f6e2079 	0x6f6e2079
879065e8:	000a0d77 	0xa0d77
879065ec:	0a0d000d 	j	88340034 <_gp+0x9dc034>
879065f0:	0d000d00 	jal	84003400 <stack-0x38f8c00>
879065f4:	000d000a 	movz	zero,zero,t5
879065f8:	0d000a0d 	jal	84002834 <stack-0x38f97cc>
879065fc:	000a0d00 	sll	at,t2,0x14
87906600:	65540a0d 	0x65540a0d
87906604:	6e697473 	0x6e697473
87906608:	6b6f2067 	0x6b6f2067
8790660c:	0d000a0d 	jal	84002834 <stack-0x38f97cc>
87906610:	6d654d0a 	0x6d654d0a
87906614:	2079726f 	addi	t9,v1,29295
87906618:	74736574 	jalx	81cd95d0 <stack-0x5c22a30>
8790661c:	69616620 	0x69616620
87906620:	2064656c 	addi	a0,v1,25964
87906624:	00207461 	0x207461
87906628:	72570a0d 	0x72570a0d
8790662c:	3d657469 	0x3d657469
87906630:	520a0d00 	beql	s0,t2,87909a34 <biosdata+0x2950>
87906634:	20646165 	addi	a0,v1,24933
87906638:	0a0d003d 	j	883400f4 <_gp+0x9dc0f4>
8790663c:	20726f78 	addi	s2,v1,28536
87906640:	0a0d003d 	j	883400f4 <_gp+0x9dc0f4>
87906644:	656c6c61 	0x656c6c61
87906648:	726f7272 	0x726f7272
8790664c:	0d003d20 	jal	8400f480 <stack-0x38ecb80>
87906650:	0020000a 	movz	zero,at,zero
87906654:	00200020 	add	zero,at,zero
87906658:	0a0d0020 	j	88340080 <_gp+0x9dc080>
8790665c:	73655400 	0x73655400
87906660:	676e6974 	0x676e6974
87906664:	6d656d20 	0x6d656d20
87906668:	2079726f 	addi	t9,v1,29295
8790666c:	0d776f6e 	jal	85ddbdb8 <stack-0x1b20248>
87906670:	000d000a 	movz	zero,zero,t5
87906674:	65540a0d 	0x65540a0d
87906678:	6e697473 	0x6e697473
8790667c:	6b6f2067 	0x6b6f2067
87906680:	0d000a0d 	jal	84002834 <stack-0x38f97cc>
87906684:	6d654d0a 	0x6d654d0a
87906688:	2079726f 	addi	t9,v1,29295
8790668c:	74736574 	jalx	81cd95d0 <stack-0x5c22a30>
87906690:	69616620 	0x69616620
87906694:	2064656c 	addi	a0,v1,25964
87906698:	00207461 	0x207461
8790669c:	72570a0d 	0x72570a0d
879066a0:	3d657469 	0x3d657469
879066a4:	520a0d00 	beql	s0,t2,87909aa8 <biosdata+0x29c4>
879066a8:	20646165 	addi	a0,v1,24933
879066ac:	0a0d003d 	j	883400f4 <_gp+0x9dc0f4>
879066b0:	20726f78 	addi	s2,v1,28536
879066b4:	0a0d003d 	j	883400f4 <_gp+0x9dc0f4>
879066b8:	656c6c61 	0x656c6c61
879066bc:	726f7272 	0x726f7272
879066c0:	63003d20 	0x63003d20
879066c4:	2079706f 	addi	t9,v1,28783
879066c8:	6c696166 	0x6c696166
879066cc:	732c6465 	0x732c6465
879066d0:	0d706f74 	jal	85c1bdd0 <stack-0x1ce0230>
879066d4:	6554000a 	0x6554000a
879066d8:	6e697473 	0x6e697473
879066dc:	656d2067 	0x656d2067
879066e0:	79726f6d 	0x79726f6d
879066e4:	776f6e20 	jalx	8dbdb880 <_gp+0x6277880>
879066e8:	0d000a0d 	jal	84002834 <stack-0x38f97cc>
879066ec:	540a0d00 	bnel	zero,t2,87909af0 <biosdata+0x2a0c>
879066f0:	69747365 	0x69747365
879066f4:	6f20676e 	0x6f20676e
879066f8:	000a0d6b 	0xa0d6b
879066fc:	654d0a0d 	0x654d0a0d
87906700:	79726f6d 	0x79726f6d
87906704:	73657420 	0x73657420
87906708:	61662074 	0x61662074
8790670c:	64656c69 	0x64656c69
87906710:	20746120 	addi	s4,v1,24864
87906714:	570a0d00 	bnel	t8,t2,87909b18 <biosdata+0x2a34>
87906718:	65746972 	0x65746972
8790671c:	0a0d003d 	j	883400f4 <_gp+0x9dc0f4>
87906720:	64616552 	0x64616552
87906724:	0d003d20 	jal	8400f480 <stack-0x38ecb80>
87906728:	726f780a 	0x726f780a
8790672c:	0d003d20 	jal	8400f480 <stack-0x38ecb80>
87906730:	6c6c610a 	0x6c6c610a
87906734:	6f727265 	0x6f727265
87906738:	003d2072 	tlt	at,sp,0x81
8790673c:	74736554 	jalx	81cd9550 <stack-0x5c22ab0>
87906740:	20676e69 	addi	a3,v1,28265
87906744:	6f6d656d 	0x6f6d656d
87906748:	6e207972 	0x6e207972
8790674c:	0a0d776f 	j	8835ddbc <_gp+0x9f9dbc>
87906750:	730a0d00 	0x730a0d00
87906754:	003d6d75 	0x3d6d75
87906758:	0d000a0d 	jal	84002834 <stack-0x38f97cc>
8790675c:	7270000a 	0x7270000a
87906760:	20737365 	addi	s3,v1,29541
87906764:	6f742078 	0x6f742078
87906768:	67656220 	0x67656220
8790676c:	72206e69 	0x72206e69
87906770:	20646165 	addi	a0,v1,24933
87906774:	0d726464 	jal	85c99190 <stack-0x1c62e70>
87906778:	3233000a 	andi	s3,s1,0xa
8790677c:	74696220 	jalx	81a58880 <stack-0x5ea3780>
87906780:	64646120 	0x64646120
87906784:	73736572 	0x73736572
87906788:	0a0d003a 	j	883400e8 <_gp+0x9dc0e8>
8790678c:	0d003a00 	jal	8400e800 <stack-0x38ed800>
87906790:	7270000a 	0x7270000a
87906794:	20737365 	addi	s3,v1,29541
87906798:	6f742078 	0x6f742078
8790679c:	67656220 	0x67656220
879067a0:	72206e69 	0x72206e69
879067a4:	73657477 	0x73657477
879067a8:	64642074 	0x64642074
879067ac:	000a0d72 	tlt	zero,t2,0x35
879067b0:	62203233 	0x62203233
879067b4:	61207469 	0x61207469
879067b8:	65726464 	0x65726464
879067bc:	003a7373 	tltu	at,k0,0x1cd
879067c0:	33000a0d 	andi	zero,t8,0xa0d
879067c4:	69622032 	0x69622032
879067c8:	61642074 	0x61642074
879067cc:	003a6174 	teq	at,k0,0x185
879067d0:	65620a0d 	0x65620a0d
879067d4:	65726f66 	0x65726f66
879067d8:	69727720 	0x69727720
879067dc:	0a0d6574 	j	883595d0 <_gp+0x9f55d0>
879067e0:	66656200 	0x66656200
879067e4:	2065726f 	addi	a1,v1,29295
879067e8:	64616572 	0x64616572
879067ec:	61000a0d 	0x61000a0d
879067f0:	72657466 	0x72657466
879067f4:	61657220 	0x61657220
879067f8:	000a0d64 	0xa0d64
879067fc:	003d0021 	addu	zero,at,sp
87906800:	0a0d0040 	j	88340100 <_gp+0x9dc100>
87906804:	65727000 	0x65727000
87906808:	78207373 	0x78207373
8790680c:	206f7420 	addi	t7,v1,29728
87906810:	69676562 	0x69676562
87906814:	6564206e 	0x6564206e
87906818:	0d677562 	jal	859dd588 <stack-0x1f1ea78>
8790681c:	6d5b000a 	0x6d5b000a
87906820:	5b5d4d7c 	0x5b5d4d7c
87906824:	2c322c31 	sltiu	s2,at,11313
87906828:	5d382c34 	0x5d382c34
8790682c:	64646120 	0x64646120
87906830:	6d232072 	0x6d232072
87906834:	6669646f 	0x6669646f
87906838:	5b0a0d79 	0x5b0a0d79
8790683c:	5d447c64 	0x5d447c64
87906840:	322c315b 	andi	t4,s1,0x315b
87906844:	382c342c 	xori	t4,at,0x342c
87906848:	6461205d 	0x6461205d
8790684c:	64207264 	0x64207264
87906850:	5b617461 	0x5b617461
87906854:	2c322c31 	sltiu	s2,at,11313
87906858:	5d382c34 	0x5d382c34
8790685c:	75642320 	jalx	85908c80 <stack-0x1ff3380>
87906860:	0a0d706d 	j	8835c1b4 <_gp+0x9f81b4>
87906864:	537c735b 	beql	k1,gp,879235d4 <biosdata+0x1c4f0>
87906868:	2c315b5d 	sltiu	s1,at,23389
8790686c:	2c342c32 	sltiu	s4,at,11314
87906870:	61205d38 	0x61205d38
87906874:	20726464 	addi	s2,v1,25700
87906878:	61746164 	0x61746164
8790687c:	756f6320 	jalx	85bd8c80 <stack-0x1d23380>
87906880:	6920746e 	0x6920746e
87906884:	2320636e 	addi	zero,t9,25454
87906888:	0d746573 	jal	85d195cc <stack-0x1be2a34>
8790688c:	7c635b0a 	0x7c635b0a
87906890:	315b5d43 	andi	k1,t2,0x5d43
87906894:	342c322c 	ori	t4,at,0x322c
87906898:	205d382c 	addi	sp,v0,14380
8790689c:	72646461 	0x72646461
879068a0:	74616420 	jalx	81859080 <stack-0x60a2f80>
879068a4:	6f632061 	0x6f632061
879068a8:	20746e75 	addi	s4,v1,28277
879068ac:	20636e69 	addi	v1,v1,28265
879068b0:	6d6f6323 	0x6d6f6323
879068b4:	65726170 	0x65726170
879068b8:	745b0a0d 	jalx	816c2834 <stack-0x62397cc>
879068bc:	5b5d547c 	0x5b5d547c
879068c0:	2c322c31 	sltiu	s2,at,11313
879068c4:	5d382c33 	0x5d382c33
879068c8:	64646120 	0x64646120
879068cc:	61642072 	0x61642072
879068d0:	20746174 	addi	s4,v1,24948
879068d4:	6e756f63 	0x6e756f63
879068d8:	6e692074 	0x6e692074
879068dc:	77232063 	jalx	8c8c818c <_gp+0x4f6418c>
879068e0:	65746972 	0x65746972
879068e4:	656e6f20 	0x656e6f20
879068e8:	65687420 	0x65687420
879068ec:	6574206e 	0x6574206e
879068f0:	6f207473 	0x6f207473
879068f4:	0a0d656e 	j	883595b8 <_gp+0x9f55b8>
879068f8:	67232067 	0x67232067
879068fc:	6f74206f 	0x6f74206f
87906900:	646d6320 	0x646d6320
87906904:	706f6f6c 	0x706f6f6c
87906908:	3a660a0d 	xori	a2,s3,0xa0d
8790690c:	666e6f63 	0x666e6f63
87906910:	73206769 	0x73206769
87906914:	67666364 	0x67666364
87906918:	656b0a0d 	0x656b0a0d
8790691c:	7c305b20 	0x7c305b20
87906920:	63235d31 	0x63235d31
87906924:	65686361 	0x65686361
87906928:	616e6520 	0x616e6520
8790692c:	0d656c62 	jal	8595b188 <stack-0x1fa0e78>
87906930:	20666b0a 	addi	a2,v1,27402
87906934:	327c315b 	andi	gp,s3,0x315b
87906938:	235d337c 	addi	sp,k0,13180
8790693c:	68636163 	0x68636163
87906940:	6f203165 	0x6f203165
87906944:	61632072 	0x61632072
87906948:	32656863 	andi	a1,s3,0x6863
8790694c:	20726f20 	addi	s2,v1,28448
87906950:	73646f67 	0x73646f67
87906954:	20316e6f 	addi	s1,at,28271
87906958:	73756c66 	0x73756c66
8790695c:	620a0d68 	0x620a0d68
87906960:	69736d20 	0x69736d20
87906964:	6420657a 	0x6420657a
87906968:	7a69736d 	0x7a69736d
8790696c:	61632065 	0x61632065
87906970:	6f656863 	0x6f656863
87906974:	6223206e 	0x6223206e
87906978:	20746f6f 	addi	s4,v1,28527
8790697c:	7a69736d 	0x7a69736d
87906980:	624d2865 	0x624d2865
87906984:	29736579 	slti	s3,t3,25977
87906988:	20700a0d 	addi	s0,v1,2573
8790698c:	20737562 	addi	s3,v1,30050
87906990:	20766564 	addi	s6,v1,25956
87906994:	636e7566 	0x636e7566
87906998:	67657220 	0x67657220
8790699c:	69637023 	0x69637023
879069a0:	6e6f6320 	0x6e6f6320
879069a4:	0d676966 	jal	859da598 <stack-0x1f21a68>
879069a8:	7320690a 	0x7320690a
879069ac:	20746f6c 	addi	s4,v1,28524
879069b0:	2066666f 	addi	a2,v1,26223
879069b4:	6e756f63 	0x6e756f63
879069b8:	32692374 	andi	t1,s3,0x2374
879069bc:	61657263 	0x61657263
879069c0:	000a0d64 	0xa0d64
879069c4:	0a0d0023 	j	8834008c <_gp+0x9dc08c>
879069c8:	00203a00 	0x203a00
879069cc:	38000a0d 	xori	zero,zero,0xa0d
879069d0:	0d006827 	jal	8401a09c <stack-0x38e1f64>
879069d4:	203a000a 	addi	k0,at,10
879069d8:	000a0d00 	sll	at,t2,0x14
879069dc:	20000a0d 	addi	zero,zero,2573
879069e0:	00682738 	0x682738
879069e4:	0d000a0d 	jal	84002834 <stack-0x38f97cc>
879069e8:	3d21000a 	0x3d21000a
879069ec:	20402000 	addi	zero,v0,8192
879069f0:	000a0d00 	sll	at,t2,0x14
879069f4:	31000a0d 	andi	zero,t0,0xa0d
879069f8:	32006827 	andi	zero,s0,0x6827
879069fc:	31006827 	andi	zero,t0,0x6827
87906a00:	32006827 	andi	zero,s0,0x6827
87906a04:	0d006827 	jal	8401a09c <stack-0x38e1f64>
87906a08:	70616d0a 	0x70616d0a
87906a0c:	64646120 	0x64646120
87906a10:	73736572 	0x73736572
87906a14:	3320003d 	andi	zero,t9,0x3d
87906a18:	20006827 	addi	zero,zero,26663
87906a1c:	00682733 	tltu	v1,t0,0x9c
87906a20:	68273120 	0x68273120
87906a24:	430a0d00 	c0	0x10a0d00
87906a28:	2079706f 	addi	t9,v1,28783
87906a2c:	4e4f4d50 	c3	0x4f4d50
87906a30:	206f7420 	addi	t7,v1,29728
87906a34:	63657865 	0x63657865
87906a38:	20657475 	addi	a1,v1,29813
87906a3c:	61636f6c 	0x61636f6c
87906a40:	6e6f6974 	0x6e6f6974
87906a44:	0d2e2e2e 	jal	84b8b8b8 <stack-0x2d70748>
87906a48:	630a000a 	0x630a000a
87906a4c:	2079706f 	addi	t9,v1,28783
87906a50:	74786574 	jalx	81e195d0 <stack-0x5ae2a30>
87906a54:	63657320 	0x63657320
87906a58:	6e6f6974 	0x6e6f6974
87906a5c:	6e6f6420 	0x6e6f6420
87906a60:	0a0d2e65 	j	8834b994 <_gp+0x9e7994>
87906a64:	706f4300 	0x706f4300
87906a68:	4d502079 	0x4d502079
87906a6c:	74204e4f 	jalx	8081393c <stack-0x70e86c4>
87906a70:	7865206f 	0x7865206f
87906a74:	74756365 	jalx	81d58d94 <stack-0x5ba326c>
87906a78:	6f6c2065 	0x6f6c2065
87906a7c:	69746163 	0x69746163
87906a80:	64206e6f 	0x64206e6f
87906a84:	2e656e6f 	sltiu	a1,s3,28271
87906a88:	20000a0d 	addi	zero,zero,2573
87906a8c:	00682731 	tgeu	v1,t0,0x9c
87906a90:	68273220 	0x68273220
87906a94:	27332000 	addiu	s3,t9,8192
87906a98:	0a0d0068 	j	883401a0 <_gp+0x9dc1a0>
87906a9c:	00203a00 	0x203a00
87906aa0:	38000a0d 	xori	zero,zero,0xa0d
87906aa4:	31006827 	andi	zero,t0,0x6827
87906aa8:	00682736 	tne	v1,t0,0x9c
87906aac:	31006827 	andi	zero,t0,0x6827
87906ab0:	00682736 	tne	v1,t0,0x9c
87906ab4:	75706e69 	jalx	85c1b9a4 <stack-0x1ce065c>
87906ab8:	78302074 	0x78302074
87906abc:	37656662 	ori	a1,k1,0x6662
87906ac0:	30333038 	andi	s3,at,0x3038
87906ac4:	6e65003a 	0x6e65003a
87906ac8:	65742064 	0x65742064
87906acc:	0a0d7473 	j	8835d1cc <_gp+0x9f91cc>
87906ad0:	706f4300 	0x706f4300
87906ad4:	4d502079 	0x4d502079
87906ad8:	74204e4f 	jalx	8081393c <stack-0x70e86c4>
87906adc:	7865206f 	0x7865206f
87906ae0:	74756365 	jalx	81d58d94 <stack-0x5ba326c>
87906ae4:	6f6c2065 	0x6f6c2065
87906ae8:	69746163 	0x69746163
87906aec:	2e2e6e6f 	sltiu	t6,s1,28271
87906af0:	000a0d2e 	0xa0d2e
87906af4:	706f630a 	0x706f630a
87906af8:	65742079 	0x65742079
87906afc:	73207478 	0x73207478
87906b00:	69746365 	0x69746365
87906b04:	64206e6f 	0x64206e6f
87906b08:	2e656e6f 	sltiu	a1,s3,28271
87906b0c:	43000a0d 	c0	0x1000a0d
87906b10:	2079706f 	addi	t9,v1,28783
87906b14:	4e4f4d50 	c3	0x4f4d50
87906b18:	206f7420 	addi	t7,v1,29728
87906b1c:	63657865 	0x63657865
87906b20:	20657475 	addi	a1,v1,29813
87906b24:	61636f6c 	0x61636f6c
87906b28:	6e6f6974 	0x6e6f6974
87906b2c:	6e6f6420 	0x6e6f6420
87906b30:	0a0d2e65 	j	8834b994 <_gp+0x9e7994>
87906b34:	3d707300 	0x3d707300
	...

87906b39 <transmit_pat_msg>:
transmit_pat_msg():
87906b39:	0a0d      	la	v0,87906b6c <transmit_pat_msg+0x33>
87906b3b:	6e49      	li	a2,73
87906b3d:	6176      	btnez	87906c2b <v480_msg+0xf>
87906b3f:	696c      	li	s1,108
87906b41:	2064      	beqz	s0,87906c0b <v400_msg+0x1a>
87906b43:	7274      	cmpi	v0,116
87906b45:	6e61      	li	a2,97
87906b47:	6d73      	li	a1,115
87906b49:	7469      	cmpi	a0,105
87906b4b:	7020      	cmpi	s0,32
87906b4d:	7461      	cmpi	a0,97
87906b4f:	6574      	move	s3,a0
87906b51:	6e72      	li	a2,114
87906b53:	202e      	beqz	s0,87906bb1 <v280_msg+0x16>
87906b55:	4d20      	addiu	a1,32
87906b57:	7375      	cmpi	v1,117
87906b59:	2074      	beqz	s0,87906c43 <v480_msg+0x27>
87906b5b:	6562      	move	v1,v0
87906b5d:	4420      	addiu	s1,a0,0
87906b5f:	4444      	addiu	v0,a0,4
87906b61:	2044      	beqz	s0,87906beb <v380_msg+0x23>
87906b63:	726f      	cmpi	v0,111
87906b65:	4420      	addiu	s1,a0,0
87906b67:	7844      	sd	v0,32(s0)
87906b69:	4444      	addiu	v0,a0,4
87906b6b:	0d78      	la	a1,87906d48 <DDR2_CTL_25_DATA_LO>
87906b6d:	000a      	addiu	s0,sp,40

87906b6f <v200_msg>:
v200_msg():
87906b6f:	0a0d      	la	v0,87906ba0 <v280_msg+0x5>
87906b71:	4150      	daddiu	v0,s1,0
87906b73:	494e      	addiu	s1,78
87906b75:	2143      	beqz	s1,87906bfd <v400_msg+0xc>
87906b77:	5520      	slti	a1,32
87906b79:	656e      	move	t3,a2
87906b7b:	7078      	cmpi	s0,120
87906b7d:	6365      	addiu	sp,808
87906b7f:	6574      	move	s3,a0
87906b81:	2064      	beqz	s0,87906c4b <v480_msg+0x2f>
87906b83:	4c54      	addiu	a0,84
87906b85:	2042      	beqz	s0,87906c0b <v400_msg+0x1a>
87906b87:	6572      	move	s3,v0
87906b89:	6966      	li	s1,102
87906b8b:	6c6c      	li	a0,108
87906b8d:	6520      	move	at,s0
87906b8f:	6378      	addiu	sp,960
87906b91:	7065      	cmpi	s0,101
87906b93:	6974      	li	s1,116
87906b95:	6e6f      	li	a2,111
87906b97:	0d21      	la	a1,87906c18 <v400_msg+0x27>
87906b99:	000a      	addiu	s0,sp,40

87906b9b <v280_msg>:
v280_msg():
87906b9b:	0a0d      	la	v0,87906bcc <v380_msg+0x4>
87906b9d:	4150      	daddiu	v0,s1,0
87906b9f:	494e      	addiu	s1,78
87906ba1:	2143      	beqz	s1,87906c29 <v480_msg+0xd>
87906ba3:	5520      	slti	a1,32
87906ba5:	656e      	move	t3,a2
87906ba7:	7078      	cmpi	s0,120
87906ba9:	6365      	addiu	sp,808
87906bab:	6574      	move	s3,a0
87906bad:	2064      	beqz	s0,87906c77 <hexchar+0x1f>
87906baf:	5458      	slti	a0,88
87906bb1:	424c      	addiu	v0,v0,-4
87906bb3:	7220      	cmpi	v0,32
87906bb5:	6665      	0x6665
87906bb7:	6c69      	li	a0,105
87906bb9:	206c      	beqz	s0,87906c93 <DDR2_CTL_02_DATA_LO+0x3>
87906bbb:	7865      	sd	v1,40(s0)
87906bbd:	6563      	move	v1,v1
87906bbf:	7470      	cmpi	a0,112
87906bc1:	6f69      	li	a3,105
87906bc3:	216e      	beqz	s1,87906ca1 <DDR2_CTL_04_DATA_LO+0x1>
87906bc5:	0a0d      	la	v0,87906bf8 <v400_msg+0x7>
	...

87906bc8 <v380_msg>:
v380_msg():
87906bc8:	41500a0d 	0x41500a0d
87906bcc:	2143494e 	addi	v1,t2,18766
87906bd0:	656e5520 	0x656e5520
87906bd4:	63657078 	0x63657078
87906bd8:	20646574 	addi	a0,v1,25972
87906bdc:	656e6547 	0x656e6547
87906be0:	206c6172 	addi	t4,v1,24946
87906be4:	65637865 	0x65637865
87906be8:	6f697470 	0x6f697470
87906bec:	0a0d216e 	j	883485b8 <_gp+0x9e45b8>
87906bf0:	500a0d00 	beql	zero,t2,87909ff4 <biosdata+0x2f10>

87906bf1 <v400_msg>:
v400_msg():
87906bf1:	0a0d      	la	v0,87906c24 <v480_msg+0x8>
87906bf3:	4150      	daddiu	v0,s1,0
87906bf5:	494e      	addiu	s1,78
87906bf7:	2143      	beqz	s1,87906c7f <hexchar+0x27>
87906bf9:	5520      	slti	a1,32
87906bfb:	656e      	move	t3,a2
87906bfd:	7078      	cmpi	s0,120
87906bff:	6365      	addiu	sp,808
87906c01:	6574      	move	s3,a0
87906c03:	2064      	beqz	s0,87906ccd <DDR2_CTL_09_DATA_HI+0x1>
87906c05:	6e49      	li	a2,73
87906c07:	6574      	move	s3,a0
87906c09:	7272      	cmpi	v0,114
87906c0b:	7075      	cmpi	s0,117
87906c0d:	2074      	beqz	s0,87906cf7 <DDR2_CTL_14_DATA_HI+0x3>
87906c0f:	7865      	sd	v1,40(s0)
87906c11:	6563      	move	v1,v1
87906c13:	7470      	cmpi	a0,112
87906c15:	6f69      	li	a3,105
87906c17:	216e      	beqz	s1,87906cf5 <DDR2_CTL_14_DATA_HI+0x1>
87906c19:	0a0d      	la	v0,87906c4c <v480_msg+0x30>
	...

87906c1c <v480_msg>:
v480_msg():
87906c1c:	41500a0d 	0x41500a0d
87906c20:	2143494e 	addi	v1,t2,18766
87906c24:	756f5920 	jalx	85bd6480 <stack-0x1d25b80>
87906c28:	76616820 	jalx	8985a080 <_gp+0x1ef6080>
87906c2c:	65622065 	0x65622065
87906c30:	69206e65 	0x69206e65
87906c34:	6874206e 	0x6874206e
87906c38:	6a452065 	0x6a452065
87906c3c:	20676174 	addi	a3,v1,24948
87906c40:	75626544 	jalx	85899510 <stack-0x2062af0>
87906c44:	4f4d2067 	c3	0x14d2067
87906c48:	54206564 	bnezl	at,879201dc <biosdata+0x190f8>
87906c4c:	20706172 	addi	s0,v1,24946
87906c50:	30207369 	andi	zero,at,0x7369
87906c54:	000a0d21 	0xa0d21

87906c58 <hexchar>:
hexchar():
87906c58:	33323130 	andi	s2,t9,0x3130
87906c5c:	37363534 	ori	s6,t9,0x3534
87906c60:	62613938 	0x62613938
87906c64:	66656463 	0x66656463
	...

87906c80 <DDR2_CTL_00_DATA_LO>:
DDR2_CTL_00_DATA_LO():
87906c80:	00010101 	0x10101

87906c84 <DDR2_CTL_00_DATA_HI>:
DDR2_CTL_00_DATA_HI():
87906c84:	01000000 	0x1000000

87906c88 <DDR2_CTL_01_DATA_LO>:
DDR2_CTL_01_DATA_LO():
87906c88:	00000000 	nop

87906c8c <DDR2_CTL_01_DATA_HI>:
DDR2_CTL_01_DATA_HI():
87906c8c:	00000001 	movf	zero,zero,$fcc0

87906c90 <DDR2_CTL_02_DATA_LO>:
DDR2_CTL_02_DATA_LO():
87906c90:	00000000 	nop

87906c94 <DDR2_CTL_02_DATA_HI>:
DDR2_CTL_02_DATA_HI():
87906c94:	00000001 	movf	zero,zero,$fcc0

87906c98 <DDR2_CTL_03_DATA_LO>:
DDR2_CTL_03_DATA_LO():
87906c98:	01000100 	0x1000100

87906c9c <DDR2_CTL_03_DATA_HI>:
DDR2_CTL_03_DATA_HI():
87906c9c:	00000000 	nop

87906ca0 <DDR2_CTL_04_DATA_LO>:
DDR2_CTL_04_DATA_LO():
87906ca0:	01010101 	0x1010101

87906ca4 <DDR2_CTL_04_DATA_HI>:
DDR2_CTL_04_DATA_HI():
87906ca4:	01000202 	0x1000202

87906ca8 <DDR2_CTL_05_DATA_LO>:
DDR2_CTL_05_DATA_LO():
87906ca8:	04050203 	0x4050203

87906cac <DDR2_CTL_05_DATA_HI>:
DDR2_CTL_05_DATA_HI():
87906cac:	00000000 	nop

87906cb0 <DDR2_CTL_06_DATA_LO>:
DDR2_CTL_06_DATA_LO():
87906cb0:	02030203 	0x2030203

87906cb4 <DDR2_CTL_06_DATA_HI>:
DDR2_CTL_06_DATA_HI():
87906cb4:	0a040304 	j	88100c10 <_gp+0x79cc10>

87906cb8 <DDR2_CTL_07_DATA_LO>:
DDR2_CTL_07_DATA_LO():
87906cb8:	00010809 	0x10809

87906cbc <DDR2_CTL_07_DATA_HI>:
DDR2_CTL_07_DATA_HI():
87906cbc:	00000400 	sll	zero,zero,0x10

87906cc0 <DDR2_CTL_08_DATA_LO>:
DDR2_CTL_08_DATA_LO():
87906cc0:	00000000 	nop

87906cc4 <DDR2_CTL_08_DATA_HI>:
DDR2_CTL_08_DATA_HI():
87906cc4:	08040201 	j	80100804 <stack-0x77fb7fc>

87906cc8 <DDR2_CTL_09_DATA_LO>:
DDR2_CTL_09_DATA_LO():
87906cc8:	00000000 	nop

87906ccc <DDR2_CTL_09_DATA_HI>:
DDR2_CTL_09_DATA_HI():
87906ccc:	0000020c 	syscall	0x8

87906cd0 <DDR2_CTL_10_DATA_LO>:
DDR2_CTL_10_DATA_LO():
87906cd0:	3f060300 	0x3f060300

87906cd4 <DDR2_CTL_10_DATA_HI>:
DDR2_CTL_10_DATA_HI():
87906cd4:	0f0e0e3f 	jal	8c3838fc <_gp+0x4a1f8fc>

87906cd8 <DDR2_CTL_11_DATA_LO>:
DDR2_CTL_11_DATA_LO():
87906cd8:	0e0e0e0e 	jal	88383838 <_gp+0xa1f838>

87906cdc <DDR2_CTL_11_DATA_HI>:
DDR2_CTL_11_DATA_HI():
87906cdc:	06170f0f 	0x6170f0f

87906ce0 <DDR2_CTL_12_DATA_LO>:
DDR2_CTL_12_DATA_LO():
87906ce0:	35000000 	ori	zero,t0,0x0

87906ce4 <DDR2_CTL_12_DATA_HI>:
DDR2_CTL_12_DATA_HI():
87906ce4:	002a3c05 	0x2a3c05

87906ce8 <DDR2_CTL_13_DATA_LO>:
DDR2_CTL_13_DATA_LO():
87906ce8:	00040004 	sllv	zero,a0,zero

87906cec <DDR2_CTL_13_DATA_HI>:
DDR2_CTL_13_DATA_HI():
87906cec:	00100004 	sllv	zero,s0,zero

87906cf0 <DDR2_CTL_14_DATA_LO>:
DDR2_CTL_14_DATA_LO():
87906cf0:	00100010 	0x100010

87906cf4 <DDR2_CTL_14_DATA_HI>:
DDR2_CTL_14_DATA_HI():
87906cf4:	00100010 	0x100010

87906cf8 <DDR2_CTL_15_DATA_LO>:
DDR2_CTL_15_DATA_LO():
87906cf8:	00000004 	sllv	zero,zero,zero

87906cfc <DDR2_CTL_15_DATA_HI>:
DDR2_CTL_15_DATA_HI():
87906cfc:	00000020 	add	zero,zero,zero

87906d00 <DDR2_CTL_16_DATA_LO>:
DDR2_CTL_16_DATA_LO():
87906d00:	00000044 	0x44

87906d04 <DDR2_CTL_16_DATA_HI>:
DDR2_CTL_16_DATA_HI():
87906d04:	000007ff 	0x7ff

87906d08 <DDR2_CTL_17_DATA_LO>:
DDR2_CTL_17_DATA_LO():
87906d08:	000104b0 	tge	zero,at,0x12

87906d0c <DDR2_CTL_17_DATA_HI>:
DDR2_CTL_17_DATA_HI():
87906d0c:	00000000 	nop

87906d10 <DDR2_CTL_18_DATA_LO>:
DDR2_CTL_18_DATA_LO():
87906d10:	00000000 	nop

87906d14 <DDR2_CTL_18_DATA_HI>:
DDR2_CTL_18_DATA_HI():
87906d14:	ffff0000 	sdc3	$31,0(ra)

87906d18 <DDR2_CTL_19_DATA_LO>:
DDR2_CTL_19_DATA_LO():
87906d18:	00c8006b 	0xc8006b

87906d1c <DDR2_CTL_19_DATA_HI>:
DDR2_CTL_19_DATA_HI():
87906d1c:	02b00002 	0x2b00002

87906d20 <DDR2_CTL_20_DATA_LO>:
DDR2_CTL_20_DATA_LO():
87906d20:	00c8000f 	0xc8000f

87906d24 <DDR2_CTL_20_DATA_HI>:
DDR2_CTL_20_DATA_HI():
87906d24:	00000000 	nop

87906d28 <DDR2_CTL_21_DATA_LO>:
DDR2_CTL_21_DATA_LO():
87906d28:	00030d40 	sll	at,v1,0x15

87906d2c <DDR2_CTL_21_DATA_HI>:
DDR2_CTL_21_DATA_HI():
87906d2c:	00000000 	nop

87906d30 <DDR2_CTL_22_DATA_LO>:
DDR2_CTL_22_DATA_LO():
87906d30:	00000000 	nop

87906d34 <DDR2_CTL_22_DATA_HI>:
DDR2_CTL_22_DATA_HI():
87906d34:	00000000 	nop

87906d38 <DDR2_CTL_23_DATA_LO>:
DDR2_CTL_23_DATA_LO():
87906d38:	00000000 	nop

87906d3c <DDR2_CTL_23_DATA_HI>:
DDR2_CTL_23_DATA_HI():
87906d3c:	00000000 	nop

87906d40 <DDR2_CTL_24_DATA_LO>:
DDR2_CTL_24_DATA_LO():
87906d40:	00000000 	nop

87906d44 <DDR2_CTL_24_DATA_HI>:
DDR2_CTL_24_DATA_HI():
87906d44:	00000000 	nop

87906d48 <DDR2_CTL_25_DATA_LO>:
DDR2_CTL_25_DATA_LO():
87906d48:	00000000 	nop

87906d4c <DDR2_CTL_25_DATA_HI>:
DDR2_CTL_25_DATA_HI():
87906d4c:	00000000 	nop

87906d50 <DDR2_CTL_26_DATA_LO>:
DDR2_CTL_26_DATA_LO():
87906d50:	00000000 	nop

87906d54 <DDR2_CTL_26_DATA_HI>:
DDR2_CTL_26_DATA_HI():
87906d54:	00000000 	nop

87906d58 <DDR2_CTL_27_DATA_LO>:
DDR2_CTL_27_DATA_LO():
87906d58:	00000000 	nop

87906d5c <DDR2_CTL_27_DATA_HI>:
DDR2_CTL_27_DATA_HI():
87906d5c:	00000000 	nop

87906d60 <DDR2_CTL_28_DATA_LO>:
DDR2_CTL_28_DATA_LO():
87906d60:	00000000 	nop

87906d64 <DDR2_CTL_28_DATA_HI>:
DDR2_CTL_28_DATA_HI():
87906d64:	00000000 	nop

87906d68 <DDR2_CTL_start_DATA_LO>:
DDR2_CTL_start_DATA_LO():
87906d68:	01000100 	0x1000100

87906d6c <DDR2_CTL_start_DATA_HI>:
DDR2_CTL_start_DATA_HI():
87906d6c:	01010100 	0x1010100
	...

87906d80 <p.1851>:
87906d80:	00000000 00000001 00000002 00000004     ................
87906d90:	00000005 00000007 00000008 0000000a     ................
87906da0:	0000000b 0000000c 00000010 00000016     ................
87906db0:	00000017 0000001a                       ........

87906db8 <border>:
87906db8:	00000010 00000011 00000012 00000000     ................
87906dc8:	00000008 00000007 00000009 00000006     ................
87906dd8:	0000000a 00000005 0000000b 00000004     ................
87906de8:	0000000c 00000003 0000000d 00000002     ................
87906df8:	0000000e 00000001 0000000f              ............

87906e04 <mask_bits>:
87906e04:	00010000 00070003 001f000f 007f003f     ............?...
87906e14:	01ff00ff 07ff03ff 1fff0fff 7fff3fff     .............?..
87906e24:	0000ffff                                ....

87906e28 <cplens>:
87906e28:	00040003 00060005 00080007 000a0009     ................
87906e38:	000d000b 0011000f 00170013 001f001b     ................
87906e48:	002b0023 003b0033 00530043 00730063     #.+.3.;.C.S.c.s.
87906e58:	00a30083 00e300c3 00000102 00000000     ................

87906e68 <cplext>:
	...
87906e78:	00010001 00010001 00020002 00020002     ................
87906e88:	00030003 00030003 00040004 00040004     ................
87906e98:	00050005 00050005 00630000 00000063     ..........c.c...

87906ea8 <cpdist>:
87906ea8:	00020001 00040003 00070005 000d0009     ................
87906eb8:	00190011 00310021 00610041 00c10081     ....!.1.A.a.....
87906ec8:	01810101 03010201 06010401 0c010801     ................
87906ed8:	18011001 30012001 60014001              ..... .0.@.`

87906ee4 <cpdext>:
	...
87906eec:	00010001 00020002 00030003 00040004     ................
87906efc:	00050005 00060006 00070007 00080008     ................
87906f0c:	00090009 000a000a 000b000b 000c000c     ................
87906f1c:	000d000d fffffffe 00000000 00000000     ................
	...
